(dp0
S'edgeDatarate'
p1
(dp2
(I1
I34
tp3
I1500
s(I15
I27
tp4
I1500
s(I30
I26
tp5
I1500
s(I11
I11
tp6
I500000
s(I49
I37
tp7
I1500
s(I16
I9
tp8
I1500
s(I12
I12
tp9
I500000
s(I43
I3
tp10
I1500
s(I16
I28
tp11
I1500
s(I40
I41
tp12
I1500
s(I44
I4
tp13
I1500
s(I18
I19
tp14
I1500
s(I18
I49
tp15
I1500
s(I32
I31
tp16
I1500
s(I22
I6
tp17
I1500
s(I24
I42
tp18
I1500
s(I19
I19
tp19
I500000
s(I46
I42
tp20
I1500
s(I6
I7
tp21
I1500
s(I5
I5
tp22
I500000
s(I5
I25
tp23
I1500
s(I7
I6
tp24
I1500
s(I8
I8
tp25
I500000
s(I24
I17
tp26
I1500
s(I26
I34
tp27
I1500
s(I28
I46
tp28
I1500
s(I2
I8
tp29
I1500
s(I48
I14
tp30
I1500
s(I10
I35
tp31
I1500
s(I1
I1
tp32
I500000
s(I46
I0
tp33
I1500
s(I37
I41
tp34
I1500
s(I20
I20
tp35
I500000
s(I8
I2
tp36
I1500
s(I38
I38
tp37
I500000
s(I4
I5
tp38
I1500
s(I35
I10
tp39
I1500
s(I46
I46
tp40
I500000
s(I39
I39
tp41
I500000
s(I3
I32
tp42
I1500
s(I9
I16
tp43
I1500
s(I24
I24
tp44
I500000
s(I22
I39
tp45
I1500
s(I5
I21
tp46
I1500
s(I4
I35
tp47
I1500
s(I16
I19
tp48
I1500
s(I35
I35
tp49
I500000
s(I25
I10
tp50
I1500
s(I27
I27
tp51
I500000
s(I18
I25
tp52
I1500
s(I42
I42
tp53
I500000
s(I23
I28
tp54
I1500
s(I36
I36
tp55
I500000
s(I1
I49
tp56
I1500
s(I23
I9
tp57
I1500
s(I41
I34
tp58
I1500
s(I10
I14
tp59
I1500
s(I33
I9
tp60
I1500
s(I31
I2
tp61
I1500
s(I21
I43
tp62
I1500
s(I43
I20
tp63
I1500
s(I2
I37
tp64
I1500
s(I31
I31
tp65
I500000
s(I30
I45
tp66
I1500
s(I49
I1
tp67
I1500
s(I20
I43
tp68
I1500
s(I28
I28
tp69
I500000
s(I13
I13
tp70
I500000
s(I20
I3
tp71
I1500
s(I27
I21
tp72
I1500
s(I25
I5
tp73
I1500
s(I41
I40
tp74
I1500
s(I3
I11
tp75
I1500
s(I44
I19
tp76
I1500
s(I9
I9
tp77
I500000
s(I19
I44
tp78
I1500
s(I6
I22
tp79
I1500
s(I24
I33
tp80
I1500
s(I35
I4
tp81
I1500
s(I14
I48
tp82
I1500
s(I19
I18
tp83
I1500
s(I7
I15
tp84
I1500
s(I21
I27
tp85
I1500
s(I11
I31
tp86
I1500
s(I25
I19
tp87
I1500
s(I49
I49
tp88
I500000
s(I18
I16
tp89
I1500
s(I17
I24
tp90
I1500
s(I48
I0
tp91
I1500
s(I21
I5
tp92
I1500
s(I2
I2
tp93
I500000
s(I32
I3
tp94
I1500
s(I37
I34
tp95
I1500
s(I8
I11
tp96
I1500
s(I34
I26
tp97
I1500
s(I31
I11
tp98
I1500
s(I5
I4
tp99
I1500
s(I45
I47
tp100
I1500
s(I25
I25
tp101
I500000
s(I26
I30
tp102
I1500
s(I15
I7
tp103
I1500
s(I49
I13
tp104
I1500
s(I12
I29
tp105
I1500
s(I35
I39
tp106
I1500
s(I34
I37
tp107
I1500
s(I23
I24
tp108
I1500
s(I24
I45
tp109
I1500
s(I33
I24
tp110
I1500
s(I11
I3
tp111
I1500
s(I38
I39
tp112
I1500
s(I29
I29
tp113
I500000
s(I45
I24
tp114
I1500
s(I10
I10
tp115
I500000
s(I0
I46
tp116
I1500
s(I39
I35
tp117
I1500
s(I30
I30
tp118
I500000
s(I45
I45
tp119
I500000
s(I3
I43
tp120
I1500
s(I10
I25
tp121
I1500
s(I1
I47
tp122
I1500
s(I14
I12
tp123
I1500
s(I30
I17
tp124
I1500
s(I4
I44
tp125
I1500
s(I27
I43
tp126
I1500
s(I28
I44
tp127
I1500
s(I17
I17
tp128
I500000
s(I8
I13
tp129
I1500
s(I28
I29
tp130
I1500
s(I27
I15
tp131
I1500
s(I29
I0
tp132
I1500
s(I36
I48
tp133
I1500
s(I16
I16
tp134
I500000
s(I4
I22
tp135
I1500
s(I44
I10
tp136
I1500
s(I49
I45
tp137
I1500
s(I37
I2
tp138
I1500
s(I21
I21
tp139
I500000
s(I9
I33
tp140
I1500
s(I13
I25
tp141
I1500
s(I28
I23
tp142
I1500
s(I48
I36
tp143
I1500
s(I47
I1
tp144
I1500
s(I3
I31
tp145
I1500
s(I32
I32
tp146
I500000
s(I45
I30
tp147
I1500
s(I38
I48
tp148
I1500
s(I11
I13
tp149
I1500
s(I14
I10
tp150
I1500
s(I12
I14
tp151
I1500
s(I26
I26
tp152
I500000
s(I25
I18
tp153
I1500
s(I10
I44
tp154
I1500
s(I25
I13
tp155
I1500
s(I22
I4
tp156
I1500
s(I16
I18
tp157
I1500
s(I43
I27
tp158
I1500
s(I44
I28
tp159
I1500
s(I37
I37
tp160
I500000
s(I11
I8
tp161
I1500
s(I6
I38
tp162
I1500
s(I42
I24
tp163
I1500
s(I32
I43
tp164
I1500
s(I40
I40
tp165
I500000
s(I18
I18
tp166
I500000
s(I42
I23
tp167
I1500
s(I41
I37
tp168
I1500
s(I39
I22
tp169
I1500
s(I13
I31
tp170
I1500
s(I42
I46
tp171
I1500
s(I39
I38
tp172
I1500
s(I49
I18
tp173
I1500
s(I38
I36
tp174
I1500
s(I29
I28
tp175
I1500
s(I5
I32
tp176
I1500
s(I6
I6
tp177
I500000
s(I37
I49
tp178
I1500
s(I44
I44
tp179
I500000
s(I7
I7
tp180
I500000
s(I41
I41
tp181
I500000
s(I45
I49
tp182
I1500
s(I47
I45
tp183
I1500
s(I13
I8
tp184
I1500
s(I9
I23
tp185
I1500
s(I31
I32
tp186
I1500
s(I36
I38
tp187
I1500
s(I4
I4
tp188
I500000
s(I3
I20
tp189
I1500
s(I34
I1
tp190
I1500
s(I13
I49
tp191
I1500
s(I29
I12
tp192
I1500
s(I19
I25
tp193
I1500
s(I24
I23
tp194
I1500
s(I14
I14
tp195
I500000
s(I5
I22
tp196
I1500
s(I15
I15
tp197
I500000
s(I0
I48
tp198
I1500
s(I0
I29
tp199
I1500
s(I34
I41
tp200
I1500
s(I22
I21
tp201
I1500
s(I13
I11
tp202
I1500
s(I19
I16
tp203
I1500
s(I0
I0
tp204
I500000
s(I40
I34
tp205
I1500
s(I28
I16
tp206
I1500
s(I2
I31
tp207
I1500
s(I34
I40
tp208
I1500
s(I48
I38
tp209
I1500
s(I43
I32
tp210
I1500
s(I47
I47
tp211
I500000
s(I43
I43
tp212
I500000
s(I31
I3
tp213
I1500
s(I48
I48
tp214
I500000
s(I3
I3
tp215
I500000
s(I46
I28
tp216
I1500
s(I23
I42
tp217
I1500
s(I22
I22
tp218
I500000
s(I21
I22
tp219
I1500
s(I38
I6
tp220
I1500
s(I17
I30
tp221
I1500
s(I23
I23
tp222
I500000
s(I22
I5
tp223
I1500
s(I33
I33
tp224
I500000
s(I43
I21
tp225
I1500
s(I32
I5
tp226
I1500
s(I34
I34
tp227
I500000
s(I31
I13
tp228
I1500
ssS'c_req'
p229
(dp230
S'FW'
p231
F0.55
sS'CACHE'
p232
F0.3
sS'IDS'
p233
F0.6
sS'SRV'
p234
I0
sS'AV'
p235
F0.7
sS'CR'
p236
I0
sS'BNG'
p237
I0
sS'REG'
p238
I0
sS'DPI'
p239
F0.8
sS'WWW'
p240
I0
sS'LB'
p241
F0.3
sS'GGSN'
p242
I0
sS'WAPGW'
p243
F0.5
sS'PCTL'
p244
F2.0
sS'IPS'
p245
F0.6
sS'VOPT'
p246
F0.7
sS'HHE'
p247
F0.5
sS'WOPT'
p248
F0.6
sS'PRX'
p249
F0.5
ssS'F'
p250
(lp251
g232
ag241
ag231
ag243
ag233
ag244
ag245
ag246
ag247
ag235
ag248
ag249
ag239
asS'n_use'
p252
(dp253
g231
I1
sg232
I1
sg233
I1
sg234
I100
sg235
I1
sg236
I100
sg237
I100
sg238
I100
sg239
I1
sg240
I100
sg241
I1
sg242
I100
sg243
I1
sg244
I1
sg245
I1
sg246
I1
sg247
I1
sg248
I1
sg249
I1
ssS'n_ins'
p254
(dp255
g231
I100
sg232
I100
sg233
I100
sg234
I100
sg235
I100
sg236
I100
sg237
I100
sg238
I100
sg239
I100
sg241
I100
sg243
I100
sg244
I100
sg245
I100
sg246
I100
sg247
I100
sg248
I100
sg249
I100
ssS'edges'
p256
(lp257
(I0
I48
tp258
a(I0
I29
tp259
a(I0
I46
tp260
a(I1
I49
tp261
a(I1
I34
tp262
a(I1
I47
tp263
a(I2
I8
tp264
a(I2
I37
tp265
a(I2
I31
tp266
a(I3
I32
tp267
a(I3
I11
tp268
a(I3
I43
tp269
a(I3
I20
tp270
a(I3
I31
tp271
a(I4
I35
tp272
a(I4
I44
tp273
a(I4
I5
tp274
a(I4
I22
tp275
a(I5
I32
tp276
a(I5
I25
tp277
a(I5
I21
tp278
a(I5
I22
tp279
a(I6
I38
tp280
a(I6
I22
tp281
a(I6
I7
tp282
a(I7
I15
tp283
a(I8
I11
tp284
a(I8
I13
tp285
a(I9
I16
tp286
a(I9
I33
tp287
a(I9
I23
tp288
a(I10
I25
tp289
a(I10
I35
tp290
a(I10
I44
tp291
a(I10
I14
tp292
a(I11
I13
tp293
a(I11
I31
tp294
a(I12
I29
tp295
a(I12
I14
tp296
a(I13
I25
tp297
a(I13
I31
tp298
a(I13
I49
tp299
a(I14
I48
tp300
a(I15
I27
tp301
a(I16
I18
tp302
a(I16
I19
tp303
a(I16
I28
tp304
a(I17
I24
tp305
a(I17
I30
tp306
a(I18
I25
tp307
a(I18
I19
tp308
a(I18
I49
tp309
a(I19
I25
tp310
a(I19
I44
tp311
a(I20
I43
tp312
a(I21
I43
tp313
a(I21
I27
tp314
a(I21
I22
tp315
a(I22
I39
tp316
a(I23
I24
tp317
a(I23
I42
tp318
a(I23
I28
tp319
a(I24
I33
tp320
a(I24
I42
tp321
a(I24
I45
tp322
a(I26
I34
tp323
a(I26
I30
tp324
a(I27
I43
tp325
a(I28
I44
tp326
a(I28
I29
tp327
a(I28
I46
tp328
a(I30
I45
tp329
a(I31
I32
tp330
a(I32
I43
tp331
a(I34
I40
tp332
a(I34
I37
tp333
a(I34
I41
tp334
a(I35
I39
tp335
a(I36
I48
tp336
a(I36
I38
tp337
a(I37
I49
tp338
a(I37
I41
tp339
a(I38
I48
tp340
a(I38
I39
tp341
a(I40
I41
tp342
a(I42
I46
tp343
a(I45
I49
tp344
a(I45
I47
tp345
a(I48
I0
tp346
a(I29
I0
tp347
a(I46
I0
tp348
a(I49
I1
tp349
a(I34
I1
tp350
a(I47
I1
tp351
a(I8
I2
tp352
a(I37
I2
tp353
a(I31
I2
tp354
a(I32
I3
tp355
a(I11
I3
tp356
a(I43
I3
tp357
a(I20
I3
tp358
a(I31
I3
tp359
a(I35
I4
tp360
a(I44
I4
tp361
a(I5
I4
tp362
a(I22
I4
tp363
a(I32
I5
tp364
a(I25
I5
tp365
a(I21
I5
tp366
a(I22
I5
tp367
a(I38
I6
tp368
a(I22
I6
tp369
a(I7
I6
tp370
a(I15
I7
tp371
a(I11
I8
tp372
a(I13
I8
tp373
a(I16
I9
tp374
a(I33
I9
tp375
a(I23
I9
tp376
a(I25
I10
tp377
a(I35
I10
tp378
a(I44
I10
tp379
a(I14
I10
tp380
a(I13
I11
tp381
a(I31
I11
tp382
a(I29
I12
tp383
a(I14
I12
tp384
a(I25
I13
tp385
a(I31
I13
tp386
a(I49
I13
tp387
a(I48
I14
tp388
a(I27
I15
tp389
a(I18
I16
tp390
a(I19
I16
tp391
a(I28
I16
tp392
a(I24
I17
tp393
a(I30
I17
tp394
a(I25
I18
tp395
a(I19
I18
tp396
a(I49
I18
tp397
a(I25
I19
tp398
a(I44
I19
tp399
a(I43
I20
tp400
a(I43
I21
tp401
a(I27
I21
tp402
a(I22
I21
tp403
a(I39
I22
tp404
a(I24
I23
tp405
a(I42
I23
tp406
a(I28
I23
tp407
a(I33
I24
tp408
a(I42
I24
tp409
a(I45
I24
tp410
a(I34
I26
tp411
a(I30
I26
tp412
a(I43
I27
tp413
a(I44
I28
tp414
a(I29
I28
tp415
a(I46
I28
tp416
a(I45
I30
tp417
a(I32
I31
tp418
a(I43
I32
tp419
a(I40
I34
tp420
a(I37
I34
tp421
a(I41
I34
tp422
a(I39
I35
tp423
a(I48
I36
tp424
a(I38
I36
tp425
a(I49
I37
tp426
a(I41
I37
tp427
a(I48
I38
tp428
a(I39
I38
tp429
a(I41
I40
tp430
a(I46
I42
tp431
a(I49
I45
tp432
a(I47
I45
tp433
a(I0
I0
tp434
a(I1
I1
tp435
a(I2
I2
tp436
a(I3
I3
tp437
a(I4
I4
tp438
a(I5
I5
tp439
a(I6
I6
tp440
a(I7
I7
tp441
a(I8
I8
tp442
a(I9
I9
tp443
a(I10
I10
tp444
a(I11
I11
tp445
a(I12
I12
tp446
a(I13
I13
tp447
a(I14
I14
tp448
a(I15
I15
tp449
a(I16
I16
tp450
a(I17
I17
tp451
a(I18
I18
tp452
a(I19
I19
tp453
a(I20
I20
tp454
a(I21
I21
tp455
a(I22
I22
tp456
a(I23
I23
tp457
a(I24
I24
tp458
a(I25
I25
tp459
a(I26
I26
tp460
a(I27
I27
tp461
a(I28
I28
tp462
a(I29
I29
tp463
a(I30
I30
tp464
a(I31
I31
tp465
a(I32
I32
tp466
a(I33
I33
tp467
a(I34
I34
tp468
a(I35
I35
tp469
a(I36
I36
tp470
a(I37
I37
tp471
a(I38
I38
tp472
a(I39
I39
tp473
a(I40
I40
tp474
a(I41
I41
tp475
a(I42
I42
tp476
a(I43
I43
tp477
a(I44
I44
tp478
a(I45
I45
tp479
a(I46
I46
tp480
a(I47
I47
tp481
a(I48
I48
tp482
a(I49
I49
tp483
asS'edgeLatency'
p484
(dp485
(I1
I34
tp486
F0.031536404469722175
s(I15
I27
tp487
F0.031645770793906874
s(I30
I26
tp488
F0.031858401325535655
s(I11
I11
tp489
I0
s(I49
I37
tp490
F0.03179993570350115
s(I16
I9
tp491
F0.03125941779622789
s(I12
I12
tp492
I0
s(I43
I3
tp493
F0.0327341207466177
s(I16
I28
tp494
F0.03190390905277368
s(I40
I41
tp495
F0.03211453009255536
s(I44
I4
tp496
F0.032298917267190266
s(I18
I19
tp497
F0.03172277051431533
s(I18
I49
tp498
F0.03189037260018328
s(I32
I31
tp499
F0.03202641630316899
s(I22
I6
tp500
F0.032002535621916614
s(I24
I42
tp501
F0.03203661309531852
s(I19
I19
tp502
I0
s(I46
I42
tp503
F0.03163148818428705
s(I6
I7
tp504
F0.03151125562500315
s(I5
I5
tp505
I0
s(I5
I25
tp506
F0.03228667335463468
s(I7
I6
tp507
F0.03151125562500315
s(I8
I8
tp508
I0
s(I24
I17
tp509
F0.032230885814294896
s(I26
I34
tp510
F0.03204923183673394
s(I28
I46
tp511
F0.03194035749157209
s(I2
I8
tp512
F0.03239024854524645
s(I48
I14
tp513
F0.0314587609234558
s(I10
I35
tp514
F0.03152218937423041
s(I1
I1
tp515
I0
s(I46
I0
tp516
F0.032212625066693916
s(I37
I41
tp517
F0.03199827682332772
s(I20
I20
tp518
I0
s(I8
I2
tp519
F0.03239024854524645
s(I38
I38
tp520
I0
s(I4
I5
tp521
F0.032428013852173254
s(I35
I10
tp522
F0.03152218937423041
s(I46
I46
tp523
I0
s(I39
I39
tp524
I0
s(I3
I32
tp525
F0.03226568556902264
s(I9
I16
tp526
F0.03125941779622789
s(I24
I24
tp527
I0
s(I22
I39
tp528
F0.03215743874432339
s(I5
I21
tp529
F0.032484142253185355
s(I4
I35
tp530
F0.03162291764503771
s(I16
I19
tp531
F0.031501369776248546
s(I35
I35
tp532
I0
s(I25
I10
tp533
F0.03244858949214983
s(I27
I27
tp534
I0
s(I18
I25
tp535
F0.031854891201997984
s(I42
I42
tp536
I0
s(I23
I28
tp537
F0.03209147729122286
s(I36
I36
tp538
I0
s(I1
I49
tp539
F0.032749933450572186
s(I23
I9
tp540
F0.03182703270185095
s(I41
I34
tp541
F0.03202012473055042
s(I10
I14
tp542
F0.03130382778048749
s(I33
I9
tp543
F0.031459627461199104
s(I31
I2
tp544
F0.032665076478986
s(I21
I43
tp545
F0.03196771286466383
s(I43
I20
tp546
F0.03241785663036954
s(I2
I37
tp547
F0.03156850214841514
s(I31
I31
tp548
I0
s(I30
I45
tp549
F0.032202368814836645
s(I49
I1
tp550
F0.032749933450572186
s(I20
I43
tp551
F0.03241785663036954
s(I28
I28
tp552
I0
s(I13
I13
tp553
I0
s(I20
I3
tp554
F0.0327472968654019
s(I27
I21
tp555
F0.03186128002851099
s(I25
I5
tp556
F0.03228667335463468
s(I41
I40
tp557
F0.03211453009255536
s(I3
I11
tp558
F0.0326743415118583
s(I44
I19
tp559
F0.03158919317023584
s(I9
I9
tp560
I0
s(I19
I44
tp561
F0.03158919317023584
s(I6
I22
tp562
F0.032002535621916614
s(I24
I33
tp563
F0.03153699785124956
s(I35
I4
tp564
F0.03162291764503771
s(I14
I48
tp565
F0.0314587609234558
s(I19
I18
tp566
F0.03172277051431533
s(I7
I15
tp567
F0.03248235474334647
s(I21
I27
tp568
F0.03186128002851099
s(I11
I31
tp569
F0.032004909586390774
s(I25
I19
tp570
F0.03202207494222908
s(I49
I49
tp571
I0
s(I18
I16
tp572
F0.03185220010889074
s(I17
I24
tp573
F0.032230885814294896
s(I48
I0
tp574
F0.03173804465993927
s(I21
I5
tp575
F0.032484142253185355
s(I2
I2
tp576
I0
s(I32
I3
tp577
F0.03226568556902264
s(I37
I34
tp578
F0.032628079544886106
s(I8
I11
tp579
F0.03160077240765124
s(I34
I26
tp580
F0.03204923183673394
s(I31
I11
tp581
F0.032004909586390774
s(I5
I4
tp582
F0.032428013852173254
s(I45
I47
tp583
F0.03175785549055831
s(I25
I25
tp584
I0
s(I26
I30
tp585
F0.031858401325535655
s(I15
I7
tp586
F0.03248235474334647
s(I49
I13
tp587
F0.032536524809108014
s(I12
I29
tp588
F0.03135191830825102
s(I35
I39
tp589
F0.031453547242817625
s(I34
I37
tp590
F0.032628079544886106
s(I23
I24
tp591
F0.03167033302570803
s(I24
I45
tp592
F0.031588504227004474
s(I33
I24
tp593
F0.03153699785124956
s(I11
I3
tp594
F0.0326743415118583
s(I38
I39
tp595
F0.031931610267097496
s(I29
I29
tp596
I0
s(I45
I24
tp597
F0.031588504227004474
s(I10
I10
tp598
I0
s(I0
I46
tp599
F0.032212625066693916
s(I39
I35
tp600
F0.031453547242817625
s(I30
I30
tp601
I0
s(I45
I45
tp602
I0
s(I3
I43
tp603
F0.0327341207466177
s(I10
I25
tp604
F0.03244858949214983
s(I1
I47
tp605
F0.03167876041025817
s(I14
I12
tp606
F0.03129140036512867
s(I30
I17
tp607
F0.03209292317110706
s(I4
I44
tp608
F0.032298917267190266
s(I27
I43
tp609
F0.03223924699003322
s(I28
I44
tp610
F0.031672260430644146
s(I17
I17
tp611
I0
s(I8
I13
tp612
F0.03233835598629855
s(I28
I29
tp613
F0.03175630117469896
s(I27
I15
tp614
F0.031645770793906874
s(I29
I0
tp615
F0.03161786092593644
s(I36
I48
tp616
F0.03352447451407674
s(I16
I16
tp617
I0
s(I4
I22
tp618
F0.03191573160556816
s(I44
I10
tp619
F0.03178092133609671
s(I49
I45
tp620
F0.032318627218979115
s(I37
I2
tp621
F0.03156850214841514
s(I21
I21
tp622
I0
s(I9
I33
tp623
F0.031459627461199104
s(I13
I25
tp624
F0.03213538962923833
s(I28
I23
tp625
F0.03209147729122286
s(I48
I36
tp626
F0.03352447451407674
s(I47
I1
tp627
F0.03167876041025817
s(I3
I31
tp628
F0.032485378472249624
s(I32
I32
tp629
I0
s(I45
I30
tp630
F0.032202368814836645
s(I38
I48
tp631
F0.03328937576756362
s(I11
I13
tp632
F0.032888828696619556
s(I14
I10
tp633
F0.03130382778048749
s(I12
I14
tp634
F0.03129140036512867
s(I26
I26
tp635
I0
s(I25
I18
tp636
F0.031854891201997984
s(I10
I44
tp637
F0.03178092133609671
s(I25
I13
tp638
F0.03213538962923833
s(I22
I4
tp639
F0.03191573160556816
s(I16
I18
tp640
F0.03185220010889074
s(I43
I27
tp641
F0.03223924699003322
s(I44
I28
tp642
F0.031672260430644146
s(I37
I37
tp643
I0
s(I11
I8
tp644
F0.03160077240765124
s(I6
I38
tp645
F0.03142858398093166
s(I42
I24
tp646
F0.03203661309531852
s(I32
I43
tp647
F0.032574306947851635
s(I40
I40
tp648
I0
s(I18
I18
tp649
I0
s(I42
I23
tp650
F0.03156865218862411
s(I41
I37
tp651
F0.03199827682332772
s(I39
I22
tp652
F0.03215743874432339
s(I13
I31
tp653
F0.03201936305159215
s(I42
I46
tp654
F0.03163148818428705
s(I39
I38
tp655
F0.031931610267097496
s(I49
I18
tp656
F0.03189037260018328
s(I38
I36
tp657
F0.031860654206084436
s(I29
I28
tp658
F0.03175630117469896
s(I5
I32
tp659
F0.03176118532725012
s(I6
I6
tp660
I0
s(I37
I49
tp661
F0.03179993570350115
s(I44
I44
tp662
I0
s(I7
I7
tp663
I0
s(I41
I41
tp664
I0
s(I45
I49
tp665
F0.032318627218979115
s(I47
I45
tp666
F0.03175785549055831
s(I13
I8
tp667
F0.03233835598629855
s(I9
I23
tp668
F0.03182703270185095
s(I31
I32
tp669
F0.03202641630316899
s(I36
I38
tp670
F0.031860654206084436
s(I4
I4
tp671
I0
s(I3
I20
tp672
F0.0327472968654019
s(I34
I1
tp673
F0.031536404469722175
s(I13
I49
tp674
F0.032536524809108014
s(I29
I12
tp675
F0.03135191830825102
s(I19
I25
tp676
F0.03202207494222908
s(I24
I23
tp677
F0.03167033302570803
s(I14
I14
tp678
I0
s(I5
I22
tp679
F0.031576660608066374
s(I15
I15
tp680
I0
s(I0
I48
tp681
F0.03173804465993927
s(I0
I29
tp682
F0.03161786092593644
s(I34
I41
tp683
F0.03202012473055042
s(I22
I21
tp684
F0.032336660881355485
s(I13
I11
tp685
F0.032888828696619556
s(I19
I16
tp686
F0.031501369776248546
s(I0
I0
tp687
I0
s(I40
I34
tp688
F0.03247634507985571
s(I28
I16
tp689
F0.03190390905277368
s(I2
I31
tp690
F0.032665076478986
s(I34
I40
tp691
F0.03247634507985571
s(I48
I38
tp692
F0.03328937576756362
s(I43
I32
tp693
F0.032574306947851635
s(I47
I47
tp694
I0
s(I43
I43
tp695
I0
s(I31
I3
tp696
F0.032485378472249624
s(I48
I48
tp697
I0
s(I3
I3
tp698
I0
s(I46
I28
tp699
F0.03194035749157209
s(I23
I42
tp700
F0.03156865218862411
s(I22
I22
tp701
I0
s(I21
I22
tp702
F0.032336660881355485
s(I38
I6
tp703
F0.03142858398093166
s(I17
I30
tp704
F0.03209292317110706
s(I23
I23
tp705
I0
s(I22
I5
tp706
F0.031576660608066374
s(I33
I33
tp707
I0
s(I43
I21
tp708
F0.03196771286466383
s(I32
I5
tp709
F0.03176118532725012
s(I34
I34
tp710
I0
s(I31
I13
tp711
F0.03201936305159215
ssS'nodes'
p712
(lp713
I0
aI1
aI2
aI3
aI4
aI5
aI6
aI7
aI8
aI9
aI10
aI11
aI12
aI13
aI14
aI15
aI16
aI17
aI18
aI19
aI20
aI21
aI22
aI23
aI24
aI25
aI26
aI27
aI28
aI29
aI30
aI31
aI32
aI33
aI34
aI35
aI36
aI37
aI38
aI39
aI40
aI41
aI42
aI43
aI44
aI45
aI46
aI47
aI48
aI49
asS'nodeCap'
p714
(dp715
I0
I500
sI1
I500
sI2
I500
sI3
I200
sI4
I200
sI5
I200
sI6
I500
sI7
I500
sI8
I500
sI9
I500
sI10
I200
sI11
I200
sI12
I500
sI13
I200
sI14
I500
sI15
I500
sI16
I200
sI17
I500
sI18
I200
sI19
I200
sI20
I500
sI21
I200
sI22
I200
sI23
I200
sI24
I200
sI25
I200
sI26
I500
sI27
I500
sI28
I200
sI29
I500
sI30
I500
sI31
I200
sI32
I200
sI33
I500
sI34
I200
sI35
I500
sI36
I500
sI37
I200
sI38
I200
sI39
I500
sI40
I500
sI41
I500
sI42
I500
sI43
I200
sI44
I200
sI45
I200
sI46
I500
sI47
I500
sI48
I200
sI49
I200
ss.