(dp0
S'edgeDatarate'
p1
(dp2
(I4
I7
tp3
I1500
s(I11
I11
tp4
I500000
s(I6
I6
tp5
I500000
s(I5
I6
tp6
I1500
s(I2
I8
tp7
I1500
s(I7
I7
tp8
I500000
s(I5
I1
tp9
I1500
s(I2
I5
tp10
I1500
s(I1
I11
tp11
I1500
s(I10
I3
tp12
I1500
s(I3
I3
tp13
I500000
s(I3
I10
tp14
I1500
s(I4
I4
tp15
I500000
s(I6
I3
tp16
I1500
s(I1
I5
tp17
I1500
s(I11
I1
tp18
I1500
s(I3
I6
tp19
I1500
s(I2
I2
tp20
I500000
s(I7
I9
tp21
I1500
s(I4
I1
tp22
I1500
s(I1
I1
tp23
I500000
s(I10
I9
tp24
I1500
s(I9
I7
tp25
I1500
s(I6
I4
tp26
I1500
s(I0
I0
tp27
I500000
s(I8
I2
tp28
I1500
s(I8
I11
tp29
I1500
s(I9
I3
tp30
I1500
s(I1
I4
tp31
I1500
s(I9
I10
tp32
I1500
s(I3
I9
tp33
I1500
s(I1
I0
tp34
I1500
s(I6
I5
tp35
I1500
s(I5
I5
tp36
I500000
s(I0
I1
tp37
I1500
s(I4
I6
tp38
I1500
s(I10
I10
tp39
I500000
s(I11
I8
tp40
I1500
s(I9
I9
tp41
I500000
s(I7
I4
tp42
I1500
s(I8
I8
tp43
I500000
s(I5
I2
tp44
I1500
ssS'c_req'
p45
(dp46
S'FW'
p47
F0.55
sS'CACHE'
p48
F0.3
sS'IDS'
p49
F0.6
sS'SRV'
p50
I0
sS'AV'
p51
F0.7
sS'CR'
p52
I0
sS'BNG'
p53
I0
sS'REG'
p54
I0
sS'DPI'
p55
F0.8
sS'WWW'
p56
I0
sS'LB'
p57
F0.3
sS'GGSN'
p58
I0
sS'WAPGW'
p59
F0.5
sS'PCTL'
p60
F2.0
sS'IPS'
p61
F0.6
sS'VOPT'
p62
F0.7
sS'HHE'
p63
F0.5
sS'WOPT'
p64
F0.6
sS'PRX'
p65
F0.5
ssS'F'
p66
(lp67
g48
ag57
ag47
ag59
ag49
ag60
ag61
ag62
ag63
ag51
ag64
ag65
ag55
asS'n_use'
p68
(dp69
g47
I1
sg48
I1
sg49
I1
sg50
I100
sg51
I1
sg52
I100
sg53
I100
sg54
I100
sg55
I1
sg56
I100
sg57
I1
sg58
I100
sg59
I1
sg60
I1
sg61
I1
sg62
I1
sg63
I1
sg64
I1
sg65
I1
ssS'n_ins'
p70
(dp71
g47
I100
sg48
I100
sg49
I100
sg50
I100
sg51
I100
sg52
I100
sg53
I100
sg54
I100
sg55
I100
sg57
I100
sg59
I100
sg60
I100
sg61
I100
sg62
I100
sg63
I100
sg64
I100
sg65
I100
ssS'edges'
p72
(lp73
(I0
I1
tp74
a(I1
I11
tp75
a(I1
I4
tp76
a(I1
I5
tp77
a(I2
I8
tp78
a(I2
I5
tp79
a(I3
I9
tp80
a(I3
I10
tp81
a(I3
I6
tp82
a(I4
I6
tp83
a(I4
I7
tp84
a(I5
I6
tp85
a(I7
I9
tp86
a(I8
I11
tp87
a(I9
I10
tp88
a(I1
I0
tp89
a(I11
I1
tp90
a(I4
I1
tp91
a(I5
I1
tp92
a(I8
I2
tp93
a(I5
I2
tp94
a(I9
I3
tp95
a(I10
I3
tp96
a(I6
I3
tp97
a(I6
I4
tp98
a(I7
I4
tp99
a(I6
I5
tp100
a(I9
I7
tp101
a(I11
I8
tp102
a(I10
I9
tp103
a(I0
I0
tp104
a(I1
I1
tp105
a(I2
I2
tp106
a(I3
I3
tp107
a(I4
I4
tp108
a(I5
I5
tp109
a(I6
I6
tp110
a(I7
I7
tp111
a(I8
I8
tp112
a(I9
I9
tp113
a(I10
I10
tp114
a(I11
I11
tp115
asS'edgeLatency'
p116
(dp117
(I4
I7
tp118
F0.05296974925892393
s(I11
I11
tp119
I0
s(I6
I6
tp120
I0
s(I5
I6
tp121
F0.04003453832640474
s(I2
I8
tp122
F0.04247781952646072
s(I7
I7
tp123
I0
s(I5
I1
tp124
F0.03688962713631355
s(I2
I5
tp125
F0.03358986266761812
s(I1
I11
tp126
F0.040001738107349014
s(I10
I3
tp127
F0.046740150189152216
s(I3
I3
tp128
I0
s(I3
I10
tp129
F0.046740150189152216
s(I4
I4
tp130
I0
s(I6
I3
tp131
F0.03845663788455603
s(I1
I5
tp132
F0.03688962713631355
s(I11
I1
tp133
F0.040001738107349014
s(I3
I6
tp134
F0.03845663788455603
s(I2
I2
tp135
I0
s(I7
I9
tp136
F0.03603580264119303
s(I4
I1
tp137
F0.04180147986620321
s(I1
I1
tp138
I0
s(I10
I9
tp139
F0.042348532626493046
s(I9
I7
tp140
F0.03603580264119303
s(I6
I4
tp141
F0.041244277962860815
s(I0
I0
tp142
I0
s(I8
I2
tp143
F0.04247781952646072
s(I8
I11
tp144
F0.034353049946939024
s(I9
I3
tp145
F0.04617338857072364
s(I1
I4
tp146
F0.04180147986620321
s(I9
I10
tp147
F0.042348532626493046
s(I3
I9
tp148
F0.04617338857072364
s(I1
I0
tp149
F0.03232411196913933
s(I6
I5
tp150
F0.04003453832640474
s(I5
I5
tp151
I0
s(I0
I1
tp152
F0.03232411196913933
s(I4
I6
tp153
F0.041244277962860815
s(I10
I10
tp154
I0
s(I11
I8
tp155
F0.034353049946939024
s(I9
I9
tp156
I0
s(I7
I4
tp157
F0.05296974925892393
s(I8
I8
tp158
I0
s(I5
I2
tp159
F0.03358986266761812
ssS'nodes'
p160
(lp161
I0
aI1
aI2
aI3
aI4
aI5
aI6
aI7
aI8
aI9
aI10
aI11
asS'nodeCap'
p162
(dp163
I0
I5000
sI1
I800
sI2
I5000
sI3
I800
sI4
I800
sI5
I800
sI6
I800
sI7
I5000
sI8
I5000
sI9
I800
sI10
I5000
sI11
I5000
ss.