(dp0
S'seed'
p1
I1
sS'name'
p2
S'req110'
p3
sS'reqs'
p4
(lp5
(irequest
Request
p6
(dp7
S'A'
p8
(dp9
S'a1'
p10
I8
sS'a2'
p11
I9
ssS'chain'
p12
S'a1.u1{u1,u2,u3;u4.u5;3}.u6.a2'
p13
sS'input_datarate'
p14
F1000.0
sS'l_req'
p15
(dp16
(g10
g11
tp17
I1
ssS'r'
p18
(dp19
g10
(lp20
F1.0
asg11
(lp21
F1.0
asS'u5'
p22
(lp23
F1.0
asS'u4'
p24
(lp25
F1.0
asS'u6'
p26
(lp27
F0.4
asS'u1'
p28
(lp29
F0.3
asS'u3'
p30
(lp31
F0.8
asS'u2'
p32
(lp33
F2.5
assS'U'
p34
(lp35
g10
ag11
ag22
ag24
ag26
ag28
ag30
ag32
asS'UF'
p36
(dp37
g10
S'REG'
p38
sg11
S'SRV'
p39
sg22
S'WAPGW'
p40
sg24
S'DPI'
p41
sg26
S'FW'
p42
sg28
S'LB'
p43
sg30
S'AV'
p44
sg32
S'WOPT'
p45
ssbas.