(dp0
S'seed'
p1
I1
sS'name'
p2
S'reqtest'
p3
sS'reqs'
p4
(lp5
(irequest
Request
p6
(dp7
S'A'
p8
(dp9
S'a1'
p10
I8
sS'a2_0'
p11
I9
sS'a2_2'
p12
I5
sS'a2_1'
p13
I0
ssS'chain'
p14
S'a1.u1{u1;a2;3}'
p15
sS'input_datarate'
p16
F1000.0
sS'l_req'
p17
(dp18
(g10
g13
tp19
I4
s(g10
S'a2'
p20
tp21
I5
s(g10
g11
tp22
I3
s(g10
g12
tp23
I5
ssS'r'
p24
(dp25
g10
(lp26
F1.0
asg11
(lp27
F1.0
asg12
(lp28
F1.0
asg20
(lp29
F1.0
asg13
(lp30
F1.0
asS'u1'
p31
(lp32
F0.3
asS'u3'
p33
(lp34
F4.0
asS'u2'
p35
(lp36
F1.2
assS'U'
p37
(lp38
g10
ag20
ag31
ag33
ag35
asS'UF'
p39
(dp40
g10
S'REG'
p41
sg20
S'SRV'
p42
sg31
S'LB'
p43
sg33
S'VOPT'
p44
sg35
S'FW'
p45
ssbas.