(dp0
S'seed'
p1
I0
sS'name'
p2
S'req20'
p3
sS'reqs'
p4
(lp5
(irequest
Request
p6
(dp7
S'A'
p8
(dp9
S'a1'
p10
I5
sS'a2'
p11
I0
ssS'chain'
p12
S'a1.u1.u2.a2'
p13
sS'input_datarate'
p14
F1000.0
sS'l_req'
p15
(dp16
(g10
g11
tp17
I5
ssS'r'
p18
(dp19
g10
(lp20
F1.0
asg11
(lp21
F1.0
asS'u1'
p22
(lp23
F1.0
asS'u2'
p24
(lp25
F0.5
assS'U'
p26
(lp27
g10
ag11
ag22
ag24
asS'UF'
p28
(dp29
g10
S'BNG'
p30
sg11
S'CR'
p31
sg22
S'CACHE'
p32
sg24
S'FW'
p33
ssbas.