(dp0
S'seed'
p1
I200
sS'name'
p2
S'complex'
p3
sS'reqs'
p4
(lp5
(irequest
Request
p6
(dp7
S'A'
p8
(dp9
S'a1'
p10
I4
sS'a2_0'
p11
I10
sS'a2_2'
p12
I0
sS'a2_3'
p13
I8
sS'a2_1'
p14
I7
ssS'chain'
p15
S'a1.u1{u1,u2,u3;u4[u5|(u6,u7)|u8.u9|u10].u11.a2;4}'
p16
sS'input_datarate'
p17
F1000.0
sS'l_req'
p18
(dp19
(g10
g14
tp20
I10
s(g10
S'a2'
p21
tp22
I10
s(g10
g11
tp23
I10
s(g10
g12
tp24
I10
s(g10
g13
tp25
I10
ssS'r'
p26
(dp27
g11
(lp28
F1.0
asS'u9'
p29
(lp30
F1.0
asS'u8'
p31
(lp32
F2.5
asg13
(lp33
F1.0
asS'u5'
p34
(lp35
F1.0
asS'u4'
p36
(lp37
F0.25
aF0.1
aF0.6
aF0.05
asS'u7'
p38
(lp39
F0.8
asS'u6'
p40
(lp41
F1.4
asS'u1'
p42
(lp43
F0.25
asS'u3'
p44
(lp45
F0.75
asS'u2'
p46
(lp47
F1.5
asg10
(lp48
F1.0
asg14
(lp49
F1.0
asg12
(lp50
F1.0
asg21
(lp51
F1.0
asS'u11'
p52
(lp53
F0.9
asS'u10'
p54
(lp55
F0.75
assS'U'
p56
(lp57
g10
ag21
ag29
ag31
ag34
ag36
ag38
ag40
ag42
ag44
ag46
ag52
ag54
asS'UF'
p58
(dp59
g10
S'REG'
p60
sg21
S'SRV'
p61
sg29
S'CACHE'
p62
sg31
S'VOPT'
p63
sg34
S'WAPGW'
p64
sg36
S'DPI'
p65
sg38
S'FW'
p66
sg40
S'PCTL'
p67
sg42
S'LB'
p68
sg44
S'AV'
p69
sg46
S'WOPT'
p70
sg52
S'IPS'
p71
sg54
S'IDS'
p72
ssbas.