(dp0
S'seed'
p1
I123
sS'name'
p2
S'req150'
p3
sS'reqs'
p4
(lp5
(irequest
Request
p6
(dp7
S'A'
p8
(dp9
S'a1'
p10
I2
sS'a2'
p11
I2
ssS'chain'
p12
S'a1.u1.u2.u3.a2'
p13
sS'input_datarate'
p14
F1000.0
sS'l_req'
p15
(dp16
(g10
g11
tp17
F5.5
ssS'r'
p18
(dp19
g10
(lp20
F1.0
asg11
(lp21
F1.0
asS'u1'
p22
(lp23
F0.4
asS'u3'
p24
(lp25
F0.6
asS'u2'
p26
(lp27
F1.0
assS'U'
p28
(lp29
g10
ag11
ag22
ag24
ag26
asS'UF'
p30
(dp31
g10
S'CR'
p32
sg11
S'BNG'
p33
sg22
S'FW'
p34
sg24
S'PCTL'
p35
sg26
S'DPI'
p36
ssbas.