(dp0
S'seed'
p1
I1
sS'name'
p2
S'mixed'
p3
sS'reqs'
p4
(lp5
(irequest
Request
p6
(dp7
S'A'
p8
(dp9
S'a1'
p10
I6
sS'a2'
p11
I9
ssS'chain'
p12
S'a1.(u1,u2).a2'
p13
sS'input_datarate'
p14
F176.368
sS'l_req'
p15
(dp16
(g10
g11
tp17
I4
ssS'r'
p18
(dp19
g10
(lp20
F1.0
asg11
(lp21
F1.0
asS'u1'
p22
(lp23
F0.4
asS'u2'
p24
(lp25
F1.0
assS'U'
p26
(lp27
g10
ag11
ag22
ag24
asS'UF'
p28
(dp29
g10
S'BNG'
p30
sg11
S'CR'
p31
sg22
S'FW'
p32
sg24
S'CACHE'
p33
ssba(irequest
Request
p34
(dp35
g8
(dp36
g10
I2
sg11
I4
ssg12
S'a1.u1.u2.u3.a2'
p37
sg14
F416.443
sg15
(dp38
(g10
g11
tp39
F5.5
ssg18
(dp40
g10
(lp41
F1.0
asg11
(lp42
F1.0
asg22
(lp43
F0.4
asS'u3'
p44
(lp45
F0.6
asg24
(lp46
F1.0
assg26
(lp47
g10
ag11
ag22
ag44
ag24
asg28
(dp48
g10
g31
sg11
g30
sg22
g32
sg44
S'PCTL'
p49
sg24
S'DPI'
p50
ssba(irequest
Request
p51
(dp52
g8
(dp53
g10
I5
sg11
I2
ssg12
S'a1.u1[u2|u3.u4.u5|u6].a2'
p54
sg14
F0.037
sg15
(dp55
(g10
g11
tp56
I7
ssg18
(dp57
g10
(lp58
F1.0
asg11
(lp59
F1.0
asS'u5'
p60
(lp61
F1.0
asS'u4'
p62
(lp63
F0.4
asS'u6'
p64
(lp65
F0.5
asg22
(lp66
F0.3
aF0.5
aF0.2
asg44
(lp67
F2.0
asg24
(lp68
F1.0
assg26
(lp69
g10
ag11
ag60
ag62
ag64
ag22
ag44
ag24
asg28
(dp70
g10
S'GGSN'
p71
sg11
S'WWW'
p72
sg60
g33
sg62
g32
sg64
g32
sg22
g50
sg44
S'VOPT'
p73
sg24
S'WAPGW'
p74
ssba(irequest
Request
p75
(dp76
g8
(dp77
g10
I4
sS'a2_0'
p78
I10
sS'a2_2'
p79
I2
sS'a2_1'
p80
I4
ssg12
S'a1.u1{u1,u2,u3;a2;3}'
p81
sg14
F117.669
sg15
(dp82
(g10
g80
tp83
I4
s(g10
g11
tp84
I5
s(g10
g78
tp85
I3
s(g10
g79
tp86
I5
ssg18
(dp87
g10
(lp88
F1.0
asg78
(lp89
F1.0
asg79
(lp90
F1.0
asg11
(lp91
F1.0
asg80
(lp92
F1.0
asg22
(lp93
F0.3
asg44
(lp94
F4.0
asg24
(lp95
F1.2
assg26
(lp96
g10
ag11
ag22
ag44
ag24
asg28
(dp97
g10
S'REG'
p98
sg11
S'SRV'
p99
sg22
S'LB'
p100
sg44
g73
sg24
g32
ssba(irequest
Request
p101
(dp102
g8
(dp103
g10
I7
sg78
I7
sg79
I9
sg80
I1
ssg12
g81
sg14
F51.874
sg15
(dp104
(g10
g80
tp105
I5
s(g10
g11
tp106
I5
s(g10
g78
tp107
I6
s(g10
g79
tp108
I7
ssg18
(dp109
g10
(lp110
F1.0
asg78
(lp111
F1.0
asg79
(lp112
F1.0
asg11
(lp113
F1.0
asg80
(lp114
F1.0
asg22
(lp115
F0.3
asg44
(lp116
F4.0
asg24
(lp117
F0.7
assg26
(lp118
g10
ag11
ag22
ag44
ag24
asg28
(dp119
g10
g98
sg11
g99
sg22
g100
sg44
g73
sg24
g32
ssba(irequest
Request
p120
(dp121
g8
(dp122
g10
I7
sg78
I0
sg79
I6
sg80
I9
ssg12
g81
sg14
F31.666
sg15
(dp123
(g10
g80
tp124
I3
s(g10
g11
tp125
I8
s(g10
g78
tp126
I5
s(g10
g79
tp127
I5
ssg18
(dp128
g10
(lp129
F1.0
asg78
(lp130
F1.0
asg79
(lp131
F1.0
asg11
(lp132
F1.0
asg80
(lp133
F1.0
asg22
(lp134
F0.25
asg44
(lp135
F3.0
asg24
(lp136
F0.1
assg26
(lp137
g10
ag11
ag22
ag44
ag24
asg28
(dp138
g10
g98
sg11
g99
sg22
g100
sg44
g73
sg24
g32
ssba(irequest
Request
p139
(dp140
g8
(dp141
g10
I9
sg78
I7
sg79
I6
sg80
I9
ssg12
S'a1.u1{u1,u2;a2;3}'
p142
sg14
F67.368
sg15
(dp143
(g10
g80
tp144
F5.5
s(g10
g11
tp145
I5
s(g10
g78
tp146
I6
s(g10
g79
tp147
I5
ssg18
(dp148
g78
(lp149
F1.0
asg22
(lp150
F0.3
asg24
(lp151
F0.1
asg10
(lp152
F1.0
asg80
(lp153
F1.0
asg79
(lp154
F1.0
asg11
(lp155
F1.0
assg26
(lp156
g10
ag11
ag22
ag24
asg28
(dp157
g10
g98
sg11
g99
sg22
g50
sg24
g32
ssba(irequest
Request
p158
(dp159
g8
(dp160
g10
I1
sg78
I0
sg79
I1
sg80
I8
ssg12
g142
sg14
F138.575
sg15
(dp161
(g10
g80
tp162
I5
s(g10
g11
tp163
I4
s(g10
g78
tp164
F5.5
s(g10
g79
tp165
F7.5
ssg18
(dp166
g78
(lp167
F1.0
asg22
(lp168
F0.3
asg24
(lp169
F0.7
asg10
(lp170
F1.0
asg80
(lp171
F1.0
asg79
(lp172
F1.0
asg11
(lp173
F1.0
assg26
(lp174
g10
ag11
ag22
ag24
asg28
(dp175
g10
g98
sg11
g99
sg22
g50
sg24
g32
ssbas.