(dp0
S"[('req0_a1', 'req0_u1'), ('req0_u1', 'req0_u3_0'), ('req0_u1', 'req0_u3_1'), ('req0_u1', 'req0_u3_2'), ('req0_u1', 'req0_u3_3'), ('req0_u3_0', 'req0_u2_0'), ('req0_u3_1', 'req0_u2_1'), ('req0_u3_2', 'req0_u2_2'), ('req0_u3_3', 'req0_u2_3'), ('req0_u2_0', 'req0_u4_0'), ('req0_u4_0', 'req0_u5_0'), ('req0_u4_0', 'req0_u6_0'), ('req0_u6_0', 'req0_u7_0'), ('req0_u4_0', 'req0_u8_0'), ('req0_u8_0', 'req0_u9_0'), ('req0_u4_0', 'req0_u10_0'), ('req0_u5_0', 'req0_u11_0'), ('req0_u7_0', 'req0_u11_0'), ('req0_u9_0', 'req0_u11_0'), ('req0_u10_0', 'req0_u11_0'), ('req0_u11_0', 'req0_a2_0'), ('req0_u2_1', 'req0_u4_1'), ('req0_u4_1', 'req0_u5_1'), ('req0_u4_1', 'req0_u6_1'), ('req0_u6_1', 'req0_u7_1'), ('req0_u4_1', 'req0_u8_1'), ('req0_u8_1', 'req0_u9_1'), ('req0_u4_1', 'req0_u10_1'), ('req0_u5_1', 'req0_u11_1'), ('req0_u7_1', 'req0_u11_1'), ('req0_u9_1', 'req0_u11_1'), ('req0_u10_1', 'req0_u11_1'), ('req0_u11_1', 'req0_a2_1'), ('req0_u2_2', 'req0_u4_2'), ('req0_u4_2', 'req0_u5_2'), ('req0_u4_2', 'req0_u6_2'), ('req0_u6_2', 'req0_u7_2'), ('req0_u4_2', 'req0_u8_2'), ('req0_u8_2', 'req0_u9_2'), ('req0_u4_2', 'req0_u10_2'), ('req0_u5_2', 'req0_u11_2'), ('req0_u7_2', 'req0_u11_2'), ('req0_u9_2', 'req0_u11_2'), ('req0_u10_2', 'req0_u11_2'), ('req0_u11_2', 'req0_a2_2'), ('req0_u2_3', 'req0_u4_3'), ('req0_u4_3', 'req0_u5_3'), ('req0_u4_3', 'req0_u6_3'), ('req0_u6_3', 'req0_u7_3'), ('req0_u4_3', 'req0_u8_3'), ('req0_u8_3', 'req0_u9_3'), ('req0_u4_3', 'req0_u10_3'), ('req0_u5_3', 'req0_u11_3'), ('req0_u7_3', 'req0_u11_3'), ('req0_u9_3', 'req0_u11_3'), ('req0_u10_3', 'req0_u11_3'), ('req0_u11_3', 'req0_a2_3')]"
p1
(dp2
S'num_instances'
p3
(dp4
S'CACHE'
p5
I4
sS'LB'
p6
I1
sS'FW'
p7
I4
sS'WAPGW'
p8
I4
sS'IDS'
p9
I4
sS'PCTL'
p10
I4
sS'IPS'
p11
I4
sS'VOPT'
p12
I4
sS'HHE'
p13
I0
sS'AV'
p14
I4
sS'WOPT'
p15
I4
sS'PRX'
p16
I0
sS'DPI'
p17
I4
ssS'time_ms'
p18
F173456.0
sS'num_network_nodes'
p19
I12
sS'mean_datarate_util'
p20
F0.04513888888888888
sS'node_utilization'
p21
(dp22
I0
F0.23984569000000006
sI1
F0.21875
sI2
F0.0
sI3
F0.140625
sI4
F0.59375
sI5
F0.0
sI6
F0.21875
sI7
F0.20484569000000005
sI8
F0.20484569
sI9
F0.0
sI10
F0.18234569000000003
sI11
F0.0
ssS'mean_latency'
p23
F0.29575414004106143
sS'solved'
p24
I01
sS'sum_remaining_node_cap'
p25
F29703.0862
sS'max_remaining_datarate'
p26
F1500.0
sS'min_remaining_datarate'
p27
F1000.0
sS'min_remaining_node_cap'
p28
F325.0
sS'chosencombs'
p29
(lp30
I10
aI11
asS'mean_remaining_datarate'
p31
F1432.2916666666667
sS'pareto_lat'
p32
F1.4787707002053072
sS'remaining_datarate'
p33
(dp34
(I4
I7
tp35
F1312.5
s(I5
I6
tp36
F1500.0
s(I2
I8
tp37
F1500.0
s(I5
I1
tp38
F1500.0
s(I2
I5
tp39
F1500.0
s(I1
I11
tp40
F1312.5
s(I10
I3
tp41
F1500.0
s(I3
I10
tp42
F1218.75
s(I6
I3
tp43
F1312.5
s(I1
I5
tp44
F1500.0
s(I11
I1
tp45
F1500.0
s(I3
I6
tp46
F1500.0
s(I4
I1
tp47
F1000.0
s(I10
I9
tp48
F1500.0
s(I9
I7
tp49
F1500.0
s(I6
I4
tp50
F1500.0
s(I8
I2
tp51
F1500.0
s(I8
I11
tp52
F1500.0
s(I9
I3
tp53
F1500.0
s(I1
I4
tp54
F1500.0
s(I9
I10
tp55
F1500.0
s(I3
I9
tp56
F1500.0
s(I1
I0
tp57
F1250.0
s(I6
I5
tp58
F1500.0
s(I7
I9
tp59
F1500.0
s(I0
I1
tp60
F1500.0
s(I4
I6
tp61
F1250.0
s(I11
I8
tp62
F1312.5
s(I7
I4
tp63
F1500.0
s(I5
I2
tp64
F1500.0
ssS'remaining_node_cap'
p65
(dp66
I0
F3800.77155
sI1
F625.0
sI2
F5000.0
sI3
F687.5
sI4
F325.0
sI5
F800.0
sI6
F625.0
sI7
F3975.77155
sI8
F3975.7715500000004
sI9
F800.0
sI10
F4088.27155
sI11
F5000.0
ssS'pareto_dr'
p67
F42968.75
sS'vnf_to_node'
p68
(dp69
g5
(lp70
I0
aI7
aI8
aI10
asg6
(lp71
I4
asg7
(lp72
I0
aI7
aI8
aI10
asg8
(lp73
I0
aI7
aI8
aI10
asg9
(lp74
I0
aI7
aI8
aI10
asg10
(lp75
I0
aI7
aI8
aI10
asg11
(lp76
I0
aI7
aI8
aI10
asg12
(lp77
I0
aI7
aI8
aI10
asg13
(lp78
sg14
(lp79
I0
aI1
aI4
aI6
asg15
(lp80
I0
aI3
aI7
aI8
asg16
(lp81
sg17
(lp82
I0
aI7
aI8
aI10
assS'edges'
p83
(dp84
(S'req0_u8_0'
p85
S'req0_u9_0'
p86
tp87
(lp88
(I10
I10
tp89
as(S'req0_u6_1'
p90
S'req0_u7_1'
p91
tp92
(lp93
(I7
I7
tp94
as(S'req0_u11_0'
p95
S'req0_a2_0'
p96
tp97
(lp98
(I10
I10
tp99
as(S'req0_u5_0'
p100
S'req0_u11_0'
p101
tp102
(lp103
(I10
I10
tp104
as(S'req0_u4_3'
p105
S'req0_u8_3'
p106
tp107
(lp108
(I8
I8
tp109
as(S'req0_u3_0'
p110
S'req0_u2_0'
p111
tp112
(lp113
(I6
I3
tp114
as(S'req0_u5_1'
p115
S'req0_u11_1'
p116
tp117
(lp118
(I7
I7
tp119
as(S'req0_u7_2'
p120
S'req0_u11_2'
p121
tp122
(lp123
(I0
I0
tp124
as(S'req0_u9_3'
p125
S'req0_u11_3'
p126
tp127
(lp128
(I8
I8
tp129
as(S'req0_u1'
p130
S'req0_u3_0'
p131
tp132
(lp133
(I4
I6
tp134
as(S'req0_u11_3'
p135
S'req0_a2_3'
p136
tp137
(lp138
(I8
I8
tp139
as(S'req0_a1'
p140
g130
tp141
(lp142
(I4
I4
tp143
as(S'req0_u3_1'
p144
S'req0_u2_1'
p145
tp146
(lp147
(I4
I7
tp148
as(S'req0_u3_2'
p149
S'req0_u2_2'
p150
tp151
(lp152
(I0
I0
tp153
as(S'req0_u2_1'
p154
S'req0_u4_1'
p155
tp156
(lp157
(I7
I7
tp158
as(S'req0_u7_0'
p159
S'req0_u11_0'
p160
tp161
(lp162
(I10
I10
tp163
as(S'req0_u3_3'
p164
S'req0_u2_3'
p165
tp166
(lp167
(I1
I11
tp168
a(I11
I8
tp169
as(S'req0_u4_1'
p170
S'req0_u8_1'
p171
tp172
(lp173
(I7
I7
tp174
as(S'req0_u10_3'
p175
S'req0_u11_3'
p176
tp177
(lp178
(I8
I8
tp179
as(S'req0_u4_2'
p180
S'req0_u5_2'
p181
tp182
(lp183
(I0
I0
tp184
as(S'req0_u7_1'
p185
S'req0_u11_1'
p186
tp187
(lp188
(I7
I7
tp189
as(S'req0_u4_0'
p190
S'req0_u8_0'
p191
tp192
(lp193
(I10
I10
tp194
as(S'req0_u4_1'
p195
S'req0_u10_1'
p196
tp197
(lp198
(I7
I7
tp199
as(S'req0_u4_1'
p200
S'req0_u5_1'
p201
tp202
(lp203
(I7
I7
tp204
as(g130
S'req0_u3_3'
p205
tp206
(lp207
(I4
I1
tp208
as(S'req0_u4_3'
p209
S'req0_u6_3'
p210
tp211
(lp212
(I8
I8
tp213
as(S'req0_u4_0'
p214
S'req0_u5_0'
p215
tp216
(lp217
(I10
I10
tp218
as(S'req0_u4_0'
p219
S'req0_u6_0'
p220
tp221
(lp222
(I10
I10
tp223
as(S'req0_u6_3'
p224
S'req0_u7_3'
p225
tp226
(lp227
(I8
I8
tp228
as(S'req0_u4_0'
p229
S'req0_u10_0'
p230
tp231
(lp232
(I10
I10
tp233
as(S'req0_u10_2'
p234
S'req0_u11_2'
p235
tp236
(lp237
(I0
I0
tp238
as(S'req0_u4_3'
p239
S'req0_u5_3'
p240
tp241
(lp242
(I8
I8
tp243
as(S'req0_u4_1'
p244
S'req0_u6_1'
p245
tp246
(lp247
(I7
I7
tp248
as(S'req0_u6_2'
p249
S'req0_u7_2'
p250
tp251
(lp252
(I0
I0
tp253
as(S'req0_u2_0'
p254
S'req0_u4_0'
p255
tp256
(lp257
(I3
I10
tp258
as(S'req0_u10_1'
p259
S'req0_u11_1'
p260
tp261
(lp262
(I7
I7
tp263
as(S'req0_u4_2'
p264
S'req0_u6_2'
p265
tp266
(lp267
(I0
I0
tp268
as(S'req0_u10_0'
p269
S'req0_u11_0'
p270
tp271
(lp272
(I10
I10
tp273
as(S'req0_u2_2'
p274
S'req0_u4_2'
p275
tp276
(lp277
(I0
I0
tp278
as(S'req0_u4_3'
p279
S'req0_u10_3'
p280
tp281
(lp282
(I8
I8
tp283
as(S'req0_u9_2'
p284
S'req0_u11_2'
p285
tp286
(lp287
(I0
I0
tp288
as(g130
S'req0_u3_2'
p289
tp290
(lp291
(I1
I0
tp292
a(I4
I1
tp293
as(S'req0_u2_3'
p294
S'req0_u4_3'
p295
tp296
(lp297
(I8
I8
tp298
as(S'req0_u7_3'
p299
S'req0_u11_3'
p300
tp301
(lp302
(I8
I8
tp303
as(S'req0_u8_2'
p304
S'req0_u9_2'
p305
tp306
(lp307
(I0
I0
tp308
as(S'req0_u4_2'
p309
S'req0_u10_2'
p310
tp311
(lp312
(I0
I0
tp313
as(S'req0_u8_3'
p314
S'req0_u9_3'
p315
tp316
(lp317
(I8
I8
tp318
as(S'req0_u4_2'
p319
S'req0_u8_2'
p320
tp321
(lp322
(I0
I0
tp323
as(S'req0_u9_0'
p324
S'req0_u11_0'
p325
tp326
(lp327
(I10
I10
tp328
as(S'req0_u11_2'
p329
S'req0_a2_2'
p330
tp331
(lp332
(I0
I0
tp333
as(S'req0_u5_2'
p334
S'req0_u11_2'
p335
tp336
(lp337
(I0
I0
tp338
as(S'req0_u9_1'
p339
S'req0_u11_1'
p340
tp341
(lp342
(I7
I7
tp343
as(S'req0_u8_1'
p344
S'req0_u9_1'
p345
tp346
(lp347
(I7
I7
tp348
as(g130
S'req0_u3_1'
p349
tp350
(lp351
(I4
I4
tp352
as(S'req0_u6_0'
p353
S'req0_u7_0'
p354
tp355
(lp356
(I10
I10
tp357
as(S'req0_u11_1'
p358
S'req0_a2_1'
p359
tp360
(lp361
(I7
I7
tp362
as(S'req0_u5_3'
p363
S'req0_u11_3'
p364
tp365
(lp366
(I8
I8
tp367
assS'datarate_util'
p368
(dp369
(I4
I7
tp370
F0.125
s(I5
I6
tp371
F0.0
s(I2
I8
tp372
F0.0
s(I5
I1
tp373
F0.0
s(I2
I5
tp374
F0.0
s(I1
I11
tp375
F0.125
s(I10
I3
tp376
F0.0
s(I3
I10
tp377
F0.1875
s(I6
I3
tp378
F0.125
s(I1
I5
tp379
F0.0
s(I11
I1
tp380
F0.0
s(I3
I6
tp381
F0.0
s(I4
I1
tp382
F0.3333333333333333
s(I10
I9
tp383
F0.0
s(I9
I7
tp384
F0.0
s(I6
I4
tp385
F0.0
s(I8
I2
tp386
F0.0
s(I8
I11
tp387
F0.0
s(I9
I3
tp388
F0.0
s(I1
I4
tp389
F0.0
s(I9
I10
tp390
F0.0
s(I3
I9
tp391
F0.0
s(I1
I0
tp392
F0.16666666666666666
s(I6
I5
tp393
F0.0
s(I7
I9
tp394
F0.0
s(I0
I1
tp395
F0.0
s(I4
I6
tp396
F0.16666666666666666
s(I11
I8
tp397
F0.125
s(I7
I4
tp398
F0.0
s(I5
I2
tp399
F0.0
ssS'sum_remaining_datarate'
p400
F42968.75
sS'ureq_to_node'
p401
(dp402
S'req0_u2_2'
p403
(lp404
I0
asS'req0_u2_3'
p405
(lp406
I8
asS'req0_u2_0'
p407
(lp408
I3
asS'req0_u2_1'
p409
(lp410
I7
asS'req0_u9_1'
p411
(lp412
I7
asS'req0_u9_0'
p413
(lp414
I10
asS'req0_a2_0'
p415
(lp416
I10
asS'req0_a2_1'
p417
(lp418
I7
asS'req0_u3_3'
p419
(lp420
I1
asS'req0_u3_2'
p421
(lp422
I0
asS'req0_u3_1'
p423
(lp424
I4
asS'req0_u3_0'
p425
(lp426
I6
asS'req0_u4_0'
p427
(lp428
I10
asS'req0_u4_1'
p429
(lp430
I7
asS'req0_u4_2'
p431
(lp432
I0
asS'req0_u4_3'
p433
(lp434
I8
asS'req0_u5_1'
p435
(lp436
I7
asS'req0_u5_0'
p437
(lp438
I10
asS'req0_u5_3'
p439
(lp440
I8
asS'req0_u5_2'
p441
(lp442
I0
asS'req0_a2_3'
p443
(lp444
I8
asS'req0_u9_3'
p445
(lp446
I8
asS'req0_a2_2'
p447
(lp448
I0
asS'req0_a1'
p449
(lp450
I4
asS'req0_u9_2'
p451
(lp452
I0
asS'req0_u1'
p453
(lp454
I4
asS'req0_u6_2'
p455
(lp456
I0
asS'req0_u6_3'
p457
(lp458
I8
asS'req0_u6_0'
p459
(lp460
I10
asS'req0_u6_1'
p461
(lp462
I7
asS'req0_u11_1'
p463
(lp464
I7
asS'req0_u11_0'
p465
(lp466
I10
asS'req0_u11_3'
p467
(lp468
I8
asS'req0_u11_2'
p469
(lp470
I0
asS'req0_u7_3'
p471
(lp472
I8
asS'req0_u7_2'
p473
(lp474
I0
asS'req0_u7_1'
p475
(lp476
I7
asS'req0_u7_0'
p477
(lp478
I10
asS'req0_u10_0'
p479
(lp480
I10
asS'req0_u10_1'
p481
(lp482
I7
asS'req0_u10_2'
p483
(lp484
I0
asS'req0_u10_3'
p485
(lp486
I8
asS'req0_u8_0'
p487
(lp488
I10
asS'req0_u8_1'
p489
(lp490
I7
asS'req0_u8_2'
p491
(lp492
I0
asS'req0_u8_3'
p493
(lp494
I8
assS'max_latency'
p495
(dp496
(S'req0_a1'
p497
S'req0_a2_1'
p498
tp499
F0.05296974925892393
s(S'req0_a1'
p500
S'req0_a2_3'
p501
tp502
F0.11615626792049125
s(S'req0_a1'
p503
S'req0_a2_0'
p504
tp505
F0.12644106603656907
s(S'req0_a1'
p506
S'req0_a2_2'
p507
tp508
F0.07412559183534254
s(S'req0_a1'
p509
S'req0_a2'
p510
tp511
I-1
ssS'used_instances'
p512
I41
sS'max_remaining_node_cap'
p513
F5000.0
sS'num_network_edges'
p514
I42
sS'mean_remaining_node_cap'
p515
F2475.2571833333336
sS'combination_number'
p516
I1
sS'mean_utilization'
p517
F0.16697981333333334
sS'used_nodes'
p518
I8
sS'num_usage_req'
p519
I41
ssS"[('req0_a1', 'req0_u2'), ('req0_u2', 'req0_u1'), ('req0_u1', 'req0_u3_0'), ('req0_u1', 'req0_u3_1'), ('req0_u1', 'req0_u3_2'), ('req0_u1', 'req0_u3_3'), ('req0_u3_0', 'req0_u4_0'), ('req0_u4_0', 'req0_u5_0'), ('req0_u4_0', 'req0_u7_0'), ('req0_u7_0', 'req0_u6_0'), ('req0_u4_0', 'req0_u8_0'), ('req0_u8_0', 'req0_u9_0'), ('req0_u4_0', 'req0_u10_0'), ('req0_u5_0', 'req0_u11_0'), ('req0_u6_0', 'req0_u11_0'), ('req0_u9_0', 'req0_u11_0'), ('req0_u10_0', 'req0_u11_0'), ('req0_u11_0', 'req0_a2_0'), ('req0_u3_1', 'req0_u4_1'), ('req0_u4_1', 'req0_u5_1'), ('req0_u4_1', 'req0_u7_1'), ('req0_u7_1', 'req0_u6_1'), ('req0_u4_1', 'req0_u8_1'), ('req0_u8_1', 'req0_u9_1'), ('req0_u4_1', 'req0_u10_1'), ('req0_u5_1', 'req0_u11_1'), ('req0_u6_1', 'req0_u11_1'), ('req0_u9_1', 'req0_u11_1'), ('req0_u10_1', 'req0_u11_1'), ('req0_u11_1', 'req0_a2_1'), ('req0_u3_2', 'req0_u4_2'), ('req0_u4_2', 'req0_u5_2'), ('req0_u4_2', 'req0_u7_2'), ('req0_u7_2', 'req0_u6_2'), ('req0_u4_2', 'req0_u8_2'), ('req0_u8_2', 'req0_u9_2'), ('req0_u4_2', 'req0_u10_2'), ('req0_u5_2', 'req0_u11_2'), ('req0_u6_2', 'req0_u11_2'), ('req0_u9_2', 'req0_u11_2'), ('req0_u10_2', 'req0_u11_2'), ('req0_u11_2', 'req0_a2_2'), ('req0_u3_3', 'req0_u4_3'), ('req0_u4_3', 'req0_u5_3'), ('req0_u4_3', 'req0_u7_3'), ('req0_u7_3', 'req0_u6_3'), ('req0_u4_3', 'req0_u8_3'), ('req0_u8_3', 'req0_u9_3'), ('req0_u4_3', 'req0_u10_3'), ('req0_u5_3', 'req0_u11_3'), ('req0_u6_3', 'req0_u11_3'), ('req0_u9_3', 'req0_u11_3'), ('req0_u10_3', 'req0_u11_3'), ('req0_u11_3', 'req0_a2_3')]"
p520
(dp521
g3
(dp522
S'CACHE'
p523
I4
sS'LB'
p524
I1
sS'FW'
p525
I4
sS'WAPGW'
p526
I4
sS'IDS'
p527
I4
sS'PCTL'
p528
I4
sS'IPS'
p529
I4
sS'VOPT'
p530
I4
sS'HHE'
p531
I0
sS'AV'
p532
I4
sS'WOPT'
p533
I1
sS'PRX'
p534
I0
sS'DPI'
p535
I4
ssg18
F222871.0
sg19
I12
sg20
F0.11104691111111112
sg21
(dp536
I0
F0.23135819000000002
sI1
F0.890625
sI2
F0.0
sI3
F0.2320319375
sI4
F0.75
sI5
F0.0
sI6
F0.75703125
sI7
F0.17885819000000003
sI8
F0.23135819000000002
sI9
F0.0
sI10
F0.07310808000000002
sI11
F0.0
ssg23
F0.4246216017591399
sg24
I01
sg25
F29122.836200000005
sg26
F1500.0
sg27
F0.0
sg28
F87.5
sg29
g30
sg31
F1333.4296333333332
sg32
F2.1231080087956995
sg33
(dp537
(I4
I7
tp538
F1218.75
s(I5
I6
tp539
F1125.0
s(I2
I8
tp540
F1500.0
s(I5
I1
tp541
F1500.0
s(I2
I5
tp542
F1500.0
s(I1
I11
tp543
F1125.0
s(I10
I3
tp544
F1500.0
s(I3
I10
tp545
F974.7649999999999
s(I6
I3
tp546
F965.6239999999999
s(I1
I5
tp547
F1125.0
s(I11
I1
tp548
F1500.0
s(I3
I6
tp549
F1500.0
s(I4
I1
tp550
F0.0
s(I10
I9
tp551
F1500.0
s(I9
I7
tp552
F1500.0
s(I6
I4
tp553
F1500.0
s(I8
I2
tp554
F1500.0
s(I8
I11
tp555
F1500.0
s(I9
I3
tp556
F1500.0
s(I1
I4
tp557
F1218.75
s(I9
I10
tp558
F1500.0
s(I3
I9
tp559
F1500.0
s(I1
I0
tp560
F1125.0
s(I6
I5
tp561
F1500.0
s(I7
I9
tp562
F1500.0
s(I0
I1
tp563
F1500.0
s(I4
I6
tp564
F1500.0
s(I11
I8
tp565
F1125.0
s(I7
I4
tp566
F1500.0
s(I5
I2
tp567
F1500.0
ssg65
(dp568
I0
F3843.2090500000004
sI1
F87.5
sI2
F5000.0
sI3
F614.3744499999999
sI4
F200.0
sI5
F800.0
sI6
F194.375
sI7
F4105.70905
sI8
F3843.2090500000004
sI9
F800.0
sI10
F4634.4596
sI11
F5000.0
ssg67
F40002.888999999996
sg68
(dp569
g523
(lp570
I0
aI3
aI7
aI8
asg524
(lp571
I1
asg525
(lp572
I0
aI3
aI7
aI8
asg526
(lp573
I0
aI3
aI7
aI8
asg527
(lp574
I0
aI3
aI7
aI8
asg528
(lp575
I0
aI7
aI8
aI10
asg529
(lp576
I0
aI7
aI8
aI10
asg530
(lp577
I0
aI6
aI7
aI8
asg531
(lp578
sg532
(lp579
I0
aI1
aI6
aI8
asg533
(lp580
I4
asg534
(lp581
sg535
(lp582
I0
aI6
aI7
aI8
assg83
(dp583
(S'req0_u3_0'
p584
S'req0_u4_0'
p585
tp586
(lp587
(I6
I6
tp588
as(S'req0_u8_0'
p589
S'req0_u9_0'
p590
tp591
(lp592
(I6
I3
tp593
as(S'req0_u11_0'
p594
S'req0_a2_0'
p595
tp596
(lp597
(I10
I10
tp598
as(S'req0_u5_0'
p599
S'req0_u11_0'
p600
tp601
(lp602
(I3
I10
tp603
as(S'req0_u3_1'
p604
S'req0_u4_1'
p605
tp606
(lp607
(I1
I4
tp608
a(I4
I7
tp609
as(S'req0_u4_3'
p610
S'req0_u5_3'
p611
tp612
(lp613
(I8
I8
tp614
as(S'req0_u5_1'
p615
S'req0_u11_1'
p616
tp617
(lp618
(I7
I7
tp619
as(S'req0_u10_1'
p620
S'req0_u11_1'
p621
tp622
(lp623
(I7
I7
tp624
as(S'req0_u5_2'
p625
S'req0_u11_2'
p626
tp627
(lp628
(I0
I0
tp629
as(S'req0_u3_2'
p630
S'req0_u4_2'
p631
tp632
(lp633
(I0
I0
tp634
as(S'req0_u3_3'
p635
S'req0_u4_3'
p636
tp637
(lp638
(I8
I8
tp639
as(S'req0_u6_2'
p640
S'req0_u11_2'
p641
tp642
(lp643
(I0
I0
tp644
as(S'req0_u1'
p645
S'req0_u3_0'
p646
tp647
(lp648
(I1
I5
tp649
a(I5
I6
tp650
as(S'req0_u10_2'
p651
S'req0_u11_2'
p652
tp653
(lp654
(I0
I0
tp655
as(S'req0_u4_2'
p656
S'req0_u10_2'
p657
tp658
(lp659
(I0
I0
tp660
as(S'req0_u4_1'
p661
S'req0_u8_1'
p662
tp663
(lp664
(I7
I7
tp665
as(S'req0_u10_3'
p666
S'req0_u11_3'
p667
tp668
(lp669
(I8
I8
tp670
as(S'req0_u4_2'
p671
S'req0_u5_2'
p672
tp673
(lp674
(I0
I0
tp675
as(S'req0_u4_0'
p676
S'req0_u8_0'
p677
tp678
(lp679
(I6
I6
tp680
as(S'req0_u4_1'
p681
S'req0_u5_1'
p682
tp683
(lp684
(I7
I7
tp685
as(g645
S'req0_u3_3'
p686
tp687
(lp688
(I1
I11
tp689
a(I11
I8
tp690
as(S'req0_u4_3'
p691
S'req0_u7_3'
p692
tp693
(lp694
(I8
I8
tp695
as(S'req0_u4_0'
p696
S'req0_u5_0'
p697
tp698
(lp699
(I6
I3
tp700
as(S'req0_u6_3'
p701
S'req0_u11_3'
p702
tp703
(lp704
(I8
I8
tp705
as(S'req0_u7_2'
p706
S'req0_u6_2'
p707
tp708
(lp709
(I0
I0
tp710
as(S'req0_u4_0'
p711
S'req0_u10_0'
p712
tp713
(lp714
(I6
I3
tp715
as(S'req0_u6_1'
p716
S'req0_u11_1'
p717
tp718
(lp719
(I7
I7
tp720
as(S'req0_u11_3'
p721
S'req0_a2_3'
p722
tp723
(lp724
(I8
I8
tp725
as(S'req0_u4_1'
p726
S'req0_u10_1'
p727
tp728
(lp729
(I7
I7
tp730
as(S'req0_u7_3'
p731
S'req0_u6_3'
p732
tp733
(lp734
(I8
I8
tp735
as(S'req0_u4_3'
p736
S'req0_u8_3'
p737
tp738
(lp739
(I8
I8
tp740
as(S'req0_u6_0'
p741
S'req0_u11_0'
p742
tp743
(lp744
(I10
I10
tp745
as(S'req0_u10_0'
p746
S'req0_u11_0'
p747
tp748
(lp749
(I3
I10
tp750
as(S'req0_u7_1'
p751
S'req0_u6_1'
p752
tp753
(lp754
(I7
I7
tp755
as(S'req0_u4_3'
p756
S'req0_u10_3'
p757
tp758
(lp759
(I8
I8
tp760
as(S'req0_u9_2'
p761
S'req0_u11_2'
p762
tp763
(lp764
(I0
I0
tp765
as(g645
S'req0_u3_2'
p766
tp767
(lp768
(I1
I0
tp769
as(S'req0_u9_3'
p770
S'req0_u11_3'
p771
tp772
(lp773
(I8
I8
tp774
as(S'req0_u8_2'
p775
S'req0_u9_2'
p776
tp777
(lp778
(I0
I0
tp779
as(S'req0_u4_2'
p780
S'req0_u7_2'
p781
tp782
(lp783
(I0
I0
tp784
as(S'req0_u8_3'
p785
S'req0_u9_3'
p786
tp787
(lp788
(I8
I8
tp789
as(S'req0_u4_2'
p790
S'req0_u8_2'
p791
tp792
(lp793
(I0
I0
tp794
as(S'req0_u2'
p795
g645
tp796
(lp797
(I4
I1
tp798
as(S'req0_u9_0'
p799
S'req0_u11_0'
p800
tp801
(lp802
(I3
I10
tp803
as(S'req0_u11_2'
p804
S'req0_a2_2'
p805
tp806
(lp807
(I0
I0
tp808
as(S'req0_u7_0'
p809
S'req0_u6_0'
p810
tp811
(lp812
(I3
I10
tp813
as(S'req0_u4_0'
p814
S'req0_u7_0'
p815
tp816
(lp817
(I6
I3
tp818
as(S'req0_u9_1'
p819
S'req0_u11_1'
p820
tp821
(lp822
(I7
I7
tp823
as(S'req0_a1'
p824
g795
tp825
(lp826
(I4
I4
tp827
as(S'req0_u4_1'
p828
S'req0_u7_1'
p829
tp830
(lp831
(I7
I7
tp832
as(S'req0_u8_1'
p833
S'req0_u9_1'
p834
tp835
(lp836
(I7
I7
tp837
as(g645
S'req0_u3_1'
p838
tp839
(lp840
(I1
I1
tp841
as(S'req0_u11_1'
p842
S'req0_a2_1'
p843
tp844
(lp845
(I7
I7
tp846
as(S'req0_u5_3'
p847
S'req0_u11_3'
p848
tp849
(lp850
(I8
I8
tp851
assg368
(dp852
(I4
I7
tp853
F0.1875
s(I5
I6
tp854
F0.25
s(I2
I8
tp855
F0.0
s(I5
I1
tp856
F0.0
s(I2
I5
tp857
F0.0
s(I1
I11
tp858
F0.25
s(I10
I3
tp859
F0.0
s(I3
I10
tp860
F0.35015666666666667
s(I6
I3
tp861
F0.35625066666666666
s(I1
I5
tp862
F0.25
s(I11
I1
tp863
F0.0
s(I3
I6
tp864
F0.0
s(I4
I1
tp865
F1.0
s(I10
I9
tp866
F0.0
s(I9
I7
tp867
F0.0
s(I6
I4
tp868
F0.0
s(I8
I2
tp869
F0.0
s(I8
I11
tp870
F0.0
s(I9
I3
tp871
F0.0
s(I1
I4
tp872
F0.1875
s(I9
I10
tp873
F0.0
s(I3
I9
tp874
F0.0
s(I1
I0
tp875
F0.25
s(I6
I5
tp876
F0.0
s(I7
I9
tp877
F0.0
s(I0
I1
tp878
F0.0
s(I4
I6
tp879
F0.0
s(I11
I8
tp880
F0.25
s(I7
I4
tp881
F0.0
s(I5
I2
tp882
F0.0
ssg400
F40002.888999999996
sg401
(dp883
S'req0_u9_1'
p884
(lp885
I7
asS'req0_u9_0'
p886
(lp887
I3
asS'req0_a2_0'
p888
(lp889
I10
asS'req0_a2_1'
p890
(lp891
I7
asS'req0_u3_3'
p892
(lp893
I8
asS'req0_u3_2'
p894
(lp895
I0
asS'req0_u3_1'
p896
(lp897
I1
asS'req0_u3_0'
p898
(lp899
I6
asS'req0_u4_0'
p900
(lp901
I6
asS'req0_u4_1'
p902
(lp903
I7
asS'req0_u4_2'
p904
(lp905
I0
asS'req0_u4_3'
p906
(lp907
I8
asS'req0_u5_1'
p908
(lp909
I7
asS'req0_u5_0'
p910
(lp911
I3
asS'req0_u5_3'
p912
(lp913
I8
asS'req0_u5_2'
p914
(lp915
I0
asS'req0_a2_3'
p916
(lp917
I8
asS'req0_u9_3'
p918
(lp919
I8
asS'req0_a2_2'
p920
(lp921
I0
asg449
(lp922
I4
asS'req0_u9_2'
p923
(lp924
I0
asS'req0_u2'
p925
(lp926
I4
asg453
(lp927
I1
asS'req0_u6_2'
p928
(lp929
I0
asS'req0_u6_3'
p930
(lp931
I8
asS'req0_u6_0'
p932
(lp933
I10
asS'req0_u6_1'
p934
(lp935
I7
asS'req0_u11_1'
p936
(lp937
I7
asS'req0_u11_0'
p938
(lp939
I10
asS'req0_u11_3'
p940
(lp941
I8
asS'req0_u11_2'
p942
(lp943
I0
asS'req0_u7_3'
p944
(lp945
I8
asS'req0_u7_2'
p946
(lp947
I0
asS'req0_u7_1'
p948
(lp949
I7
asS'req0_u7_0'
p950
(lp951
I3
asS'req0_u10_0'
p952
(lp953
I3
asS'req0_u10_1'
p954
(lp955
I7
asS'req0_u10_2'
p956
(lp957
I0
asS'req0_u10_3'
p958
(lp959
I8
asS'req0_u8_0'
p960
(lp961
I6
asS'req0_u8_1'
p962
(lp963
I7
asS'req0_u8_2'
p964
(lp965
I0
asS'req0_u8_3'
p966
(lp967
I8
assg495
(dp968
(g497
g498
tp969
F0.13657270901398222
s(g500
g501
tp970
F0.11615626792184162
s(g503
g504
tp971
F0.2039224334041595
s(g506
g507
tp972
F0.07412559185894142
s(g509
g510
tp973
I-1
ssg512
I38
sg513
F5000.0
sg514
I42
sg515
F2426.903016666667
sg516
I8
sg517
F0.27869756979166666
sg518
I8
sg519
I38
ssS"[('req0_a1', 'req0_u3'), ('req0_u3', 'req0_u2'), ('req0_u2', 'req0_u1'), ('req0_u1', 'req0_u4_0'), ('req0_u4_0', 'req0_u5_0'), ('req0_u4_0', 'req0_u7_0'), ('req0_u7_0', 'req0_u6_0'), ('req0_u4_0', 'req0_u8_0'), ('req0_u8_0', 'req0_u9_0'), ('req0_u4_0', 'req0_u10_0'), ('req0_u5_0', 'req0_u11_0'), ('req0_u6_0', 'req0_u11_0'), ('req0_u9_0', 'req0_u11_0'), ('req0_u10_0', 'req0_u11_0'), ('req0_u11_0', 'req0_a2_0'), ('req0_u1', 'req0_u4_1'), ('req0_u4_1', 'req0_u5_1'), ('req0_u4_1', 'req0_u7_1'), ('req0_u7_1', 'req0_u6_1'), ('req0_u4_1', 'req0_u8_1'), ('req0_u8_1', 'req0_u9_1'), ('req0_u4_1', 'req0_u10_1'), ('req0_u5_1', 'req0_u11_1'), ('req0_u6_1', 'req0_u11_1'), ('req0_u9_1', 'req0_u11_1'), ('req0_u10_1', 'req0_u11_1'), ('req0_u11_1', 'req0_a2_1'), ('req0_u1', 'req0_u4_2'), ('req0_u4_2', 'req0_u5_2'), ('req0_u4_2', 'req0_u7_2'), ('req0_u7_2', 'req0_u6_2'), ('req0_u4_2', 'req0_u8_2'), ('req0_u8_2', 'req0_u9_2'), ('req0_u4_2', 'req0_u10_2'), ('req0_u5_2', 'req0_u11_2'), ('req0_u6_2', 'req0_u11_2'), ('req0_u9_2', 'req0_u11_2'), ('req0_u10_2', 'req0_u11_2'), ('req0_u11_2', 'req0_a2_2'), ('req0_u1', 'req0_u4_3'), ('req0_u4_3', 'req0_u5_3'), ('req0_u4_3', 'req0_u7_3'), ('req0_u7_3', 'req0_u6_3'), ('req0_u4_3', 'req0_u8_3'), ('req0_u8_3', 'req0_u9_3'), ('req0_u4_3', 'req0_u10_3'), ('req0_u5_3', 'req0_u11_3'), ('req0_u6_3', 'req0_u11_3'), ('req0_u9_3', 'req0_u11_3'), ('req0_u10_3', 'req0_u11_3'), ('req0_u11_3', 'req0_a2_3')]"
p974
(dp975
g3
(dp976
S'CACHE'
p977
I4
sS'LB'
p978
I1
sS'FW'
p979
I4
sS'WAPGW'
p980
I4
sS'IDS'
p981
I4
sS'PCTL'
p982
I4
sS'IPS'
p983
I4
sS'VOPT'
p984
I4
sS'HHE'
p985
I0
sS'AV'
p986
I1
sS'WOPT'
p987
I1
sS'PRX'
p988
I0
sS'DPI'
p989
I4
ssg18
F227661.0
sg19
I12
sg20
F0.08277326666666666
sg21
(dp990
I0
F0.17885819000000003
sI1
F0.984375
sI2
F0.0
sI3
F0.2214850625
sI4
F0.875
sI5
F0.0
sI6
F0.28125
sI7
F0.17885819000000003
sI8
F0.0
sI9
F0.0
sI10
F0.09842058000000001
sI11
F0.17885819000000003
ssg23
F0.4246216017198351
sg24
I01
sg25
F29735.3362
sg26
F1500.0
sg27
F750.0
sg28
F12.5
sg29
g30
sg31
F1375.8401
sg32
F2.1231080085991754
sg33
(dp991
(I4
I7
tp992
F1218.75
s(I5
I6
tp993
F1218.75
s(I2
I8
tp994
F1500.0
s(I5
I1
tp995
F1500.0
s(I2
I5
tp996
F1500.0
s(I1
I11
tp997
F1218.75
s(I10
I3
tp998
F1500.0
s(I3
I10
tp999
F974.765
s(I6
I3
tp1000
F1218.7489999999998
s(I1
I5
tp1001
F1218.75
s(I11
I1
tp1002
F1500.0
s(I3
I6
tp1003
F1500.0
s(I4
I1
tp1004
F750.0
s(I10
I9
tp1005
F1500.0
s(I9
I7
tp1006
F1500.0
s(I6
I4
tp1007
F1500.0
s(I8
I2
tp1008
F1500.0
s(I8
I11
tp1009
F1500.0
s(I9
I3
tp1010
F1500.0
s(I1
I4
tp1011
F1218.75
s(I9
I10
tp1012
F1500.0
s(I3
I9
tp1013
F1500.0
s(I1
I0
tp1014
F1218.75
s(I6
I5
tp1015
F1500.0
s(I7
I9
tp1016
F1500.0
s(I0
I1
tp1017
F1500.0
s(I4
I6
tp1018
F1500.0
s(I11
I8
tp1019
F1019.1890000000001
s(I7
I4
tp1020
F1500.0
s(I5
I2
tp1021
F1500.0
ssg65
(dp1022
I0
F4105.70905
sI1
F12.5
sI2
F5000.0
sI3
F622.8119499999999
sI4
F100.0
sI5
F800.0
sI6
F575.0
sI7
F4105.70905
sI8
F5000.0
sI9
F800.0
sI10
F4507.8971
sI11
F4105.70905
ssg67
F41275.202999999994
sg68
(dp1023
g977
(lp1024
I0
aI7
aI10
aI11
asg978
(lp1025
I1
asg979
(lp1026
I0
aI3
aI7
aI11
asg980
(lp1027
I0
aI3
aI7
aI11
asg981
(lp1028
I0
aI3
aI7
aI11
asg982
(lp1029
I0
aI7
aI10
aI11
asg983
(lp1030
I0
aI7
aI10
aI11
asg984
(lp1031
I0
aI3
aI7
aI11
asg985
(lp1032
sg986
(lp1033
I4
asg987
(lp1034
I1
asg988
(lp1035
sg989
(lp1036
I0
aI6
aI7
aI11
assg83
(dp1037
(S'req0_u8_0'
p1038
S'req0_u9_0'
p1039
tp1040
(lp1041
(I3
I10
tp1042
as(S'req0_u11_0'
p1043
S'req0_a2_0'
p1044
tp1045
(lp1046
(I10
I10
tp1047
as(S'req0_u5_0'
p1048
S'req0_u11_0'
p1049
tp1050
(lp1051
(I3
I10
tp1052
as(S'req0_u1'
p1053
S'req0_u4_1'
p1054
tp1055
(lp1056
(I1
I4
tp1057
a(I4
I7
tp1058
as(S'req0_u5_1'
p1059
S'req0_u11_1'
p1060
tp1061
(lp1062
(I7
I7
tp1063
as(S'req0_u10_1'
p1064
S'req0_u11_1'
p1065
tp1066
(lp1067
(I7
I7
tp1068
as(S'req0_u5_2'
p1069
S'req0_u11_2'
p1070
tp1071
(lp1072
(I0
I0
tp1073
as(S'req0_u6_2'
p1074
S'req0_u11_2'
p1075
tp1076
(lp1077
(I0
I0
tp1078
as(S'req0_u10_2'
p1079
S'req0_u11_2'
p1080
tp1081
(lp1082
(I0
I0
tp1083
as(S'req0_u4_2'
p1084
S'req0_u10_2'
p1085
tp1086
(lp1087
(I0
I0
tp1088
as(S'req0_u11_3'
p1089
S'req0_a2_3'
p1090
tp1091
(lp1092
(I11
I8
tp1093
as(S'req0_u3'
p1094
S'req0_u2'
p1095
tp1096
(lp1097
(I4
I1
tp1098
as(S'req0_u4_1'
p1099
S'req0_u8_1'
p1100
tp1101
(lp1102
(I7
I7
tp1103
as(S'req0_u10_3'
p1104
S'req0_u11_3'
p1105
tp1106
(lp1107
(I11
I11
tp1108
as(S'req0_u4_2'
p1109
S'req0_u5_2'
p1110
tp1111
(lp1112
(I0
I0
tp1113
as(S'req0_u4_0'
p1114
S'req0_u8_0'
p1115
tp1116
(lp1117
(I6
I3
tp1118
as(S'req0_u4_1'
p1119
S'req0_u5_1'
p1120
tp1121
(lp1122
(I7
I7
tp1123
as(g1053
S'req0_u4_2'
p1124
tp1125
(lp1126
(I1
I0
tp1127
as(S'req0_u4_1'
p1128
S'req0_u10_1'
p1129
tp1130
(lp1131
(I7
I7
tp1132
as(S'req0_u4_3'
p1133
S'req0_u7_3'
p1134
tp1135
(lp1136
(I11
I11
tp1137
as(S'req0_u4_0'
p1138
S'req0_u5_0'
p1139
tp1140
(lp1141
(I6
I3
tp1142
as(S'req0_u6_3'
p1143
S'req0_u11_3'
p1144
tp1145
(lp1146
(I11
I11
tp1147
as(S'req0_u7_2'
p1148
S'req0_u6_2'
p1149
tp1150
(lp1151
(I0
I0
tp1152
as(S'req0_u4_0'
p1153
S'req0_u10_0'
p1154
tp1155
(lp1156
(I6
I3
tp1157
as(S'req0_u6_1'
p1158
S'req0_u11_1'
p1159
tp1160
(lp1161
(I7
I7
tp1162
as(S'req0_u4_3'
p1163
S'req0_u5_3'
p1164
tp1165
(lp1166
(I11
I11
tp1167
as(S'req0_u7_3'
p1168
S'req0_u6_3'
p1169
tp1170
(lp1171
(I11
I11
tp1172
as(S'req0_u4_3'
p1173
S'req0_u8_3'
p1174
tp1175
(lp1176
(I11
I11
tp1177
as(S'req0_u6_0'
p1178
S'req0_u11_0'
p1179
tp1180
(lp1181
(I10
I10
tp1182
as(S'req0_u10_0'
p1183
S'req0_u11_0'
p1184
tp1185
(lp1186
(I3
I10
tp1187
as(S'req0_u7_1'
p1188
S'req0_u6_1'
p1189
tp1190
(lp1191
(I7
I7
tp1192
as(S'req0_u4_3'
p1193
S'req0_u10_3'
p1194
tp1195
(lp1196
(I11
I11
tp1197
as(g1053
S'req0_u4_3'
p1198
tp1199
(lp1200
(I1
I11
tp1201
as(S'req0_u9_2'
p1202
S'req0_u11_2'
p1203
tp1204
(lp1205
(I0
I0
tp1206
as(S'req0_u7_0'
p1207
S'req0_u6_0'
p1208
tp1209
(lp1210
(I3
I10
tp1211
as(S'req0_u9_3'
p1212
S'req0_u11_3'
p1213
tp1214
(lp1215
(I11
I11
tp1216
as(S'req0_a1'
p1217
g1094
tp1218
(lp1219
(I4
I4
tp1220
as(S'req0_u8_2'
p1221
S'req0_u9_2'
p1222
tp1223
(lp1224
(I0
I0
tp1225
as(S'req0_u4_2'
p1226
S'req0_u7_2'
p1227
tp1228
(lp1229
(I0
I0
tp1230
as(S'req0_u8_3'
p1231
S'req0_u9_3'
p1232
tp1233
(lp1234
(I11
I11
tp1235
as(S'req0_u4_2'
p1236
S'req0_u8_2'
p1237
tp1238
(lp1239
(I0
I0
tp1240
as(g1095
g1053
tp1241
(lp1242
(I1
I1
tp1243
as(S'req0_u9_0'
p1244
S'req0_u11_0'
p1245
tp1246
(lp1247
(I10
I10
tp1248
as(S'req0_u11_2'
p1249
S'req0_a2_2'
p1250
tp1251
(lp1252
(I0
I0
tp1253
as(g1053
S'req0_u4_0'
p1254
tp1255
(lp1256
(I1
I5
tp1257
a(I5
I6
tp1258
as(S'req0_u4_0'
p1259
S'req0_u7_0'
p1260
tp1261
(lp1262
(I6
I3
tp1263
as(S'req0_u9_1'
p1264
S'req0_u11_1'
p1265
tp1266
(lp1267
(I7
I7
tp1268
as(S'req0_u4_1'
p1269
S'req0_u7_1'
p1270
tp1271
(lp1272
(I7
I7
tp1273
as(S'req0_u8_1'
p1274
S'req0_u9_1'
p1275
tp1276
(lp1277
(I7
I7
tp1278
as(S'req0_u11_1'
p1279
S'req0_a2_1'
p1280
tp1281
(lp1282
(I7
I7
tp1283
as(S'req0_u5_3'
p1284
S'req0_u11_3'
p1285
tp1286
(lp1287
(I11
I11
tp1288
assg368
(dp1289
(I4
I7
tp1290
F0.1875
s(I5
I6
tp1291
F0.1875
s(I2
I8
tp1292
F0.0
s(I5
I1
tp1293
F0.0
s(I2
I5
tp1294
F0.0
s(I1
I11
tp1295
F0.1875
s(I10
I3
tp1296
F0.0
s(I3
I10
tp1297
F0.35015666666666667
s(I6
I3
tp1298
F0.18750066666666665
s(I1
I5
tp1299
F0.1875
s(I11
I1
tp1300
F0.0
s(I3
I6
tp1301
F0.0
s(I4
I1
tp1302
F0.5
s(I10
I9
tp1303
F0.0
s(I9
I7
tp1304
F0.0
s(I6
I4
tp1305
F0.0
s(I8
I2
tp1306
F0.0
s(I8
I11
tp1307
F0.0
s(I9
I3
tp1308
F0.0
s(I1
I4
tp1309
F0.1875
s(I9
I10
tp1310
F0.0
s(I3
I9
tp1311
F0.0
s(I1
I0
tp1312
F0.1875
s(I6
I5
tp1313
F0.0
s(I7
I9
tp1314
F0.0
s(I0
I1
tp1315
F0.0
s(I4
I6
tp1316
F0.0
s(I11
I8
tp1317
F0.32054066666666664
s(I7
I4
tp1318
F0.0
s(I5
I2
tp1319
F0.0
ssg400
F41275.202999999994
sg401
(dp1320
S'req0_u9_1'
p1321
(lp1322
I7
asS'req0_u9_0'
p1323
(lp1324
I10
asS'req0_a2_0'
p1325
(lp1326
I10
asS'req0_a2_1'
p1327
(lp1328
I7
asS'req0_u4_0'
p1329
(lp1330
I6
asS'req0_u4_1'
p1331
(lp1332
I7
asS'req0_u4_2'
p1333
(lp1334
I0
asS'req0_u4_3'
p1335
(lp1336
I11
asS'req0_u5_1'
p1337
(lp1338
I7
asS'req0_u5_0'
p1339
(lp1340
I3
asS'req0_u5_3'
p1341
(lp1342
I11
asS'req0_u5_2'
p1343
(lp1344
I0
asS'req0_a2_3'
p1345
(lp1346
I8
asS'req0_u9_3'
p1347
(lp1348
I11
asS'req0_a2_2'
p1349
(lp1350
I0
asg449
(lp1351
I4
asS'req0_u9_2'
p1352
(lp1353
I0
asS'req0_u3'
p1354
(lp1355
I4
asg925
(lp1356
I1
asg453
(lp1357
I1
asS'req0_u6_2'
p1358
(lp1359
I0
asS'req0_u6_3'
p1360
(lp1361
I11
asS'req0_u6_0'
p1362
(lp1363
I10
asS'req0_u6_1'
p1364
(lp1365
I7
asS'req0_u11_1'
p1366
(lp1367
I7
asS'req0_u11_0'
p1368
(lp1369
I10
asS'req0_u11_3'
p1370
(lp1371
I11
asS'req0_u11_2'
p1372
(lp1373
I0
asS'req0_u7_3'
p1374
(lp1375
I11
asS'req0_u7_2'
p1376
(lp1377
I0
asS'req0_u7_1'
p1378
(lp1379
I7
asS'req0_u7_0'
p1380
(lp1381
I3
asS'req0_u10_0'
p1382
(lp1383
I3
asS'req0_u10_1'
p1384
(lp1385
I7
asS'req0_u10_2'
p1386
(lp1387
I0
asS'req0_u10_3'
p1388
(lp1389
I11
asS'req0_u8_0'
p1390
(lp1391
I3
asS'req0_u8_1'
p1392
(lp1393
I7
asS'req0_u8_2'
p1394
(lp1395
I0
asS'req0_u8_3'
p1396
(lp1397
I11
assg495
(dp1398
(g497
g498
tp1399
F0.13657270899133034
s(g500
g501
tp1400
F0.11615626792049125
s(g503
g504
tp1401
F0.20392243340262978
s(g506
g507
tp1402
F0.07412559183534254
s(g509
g510
tp1403
I-1
ssg512
I35
sg513
F5000.0
sg514
I42
sg515
F2477.9446833333336
sg516
I11
sg517
F0.24975876770833336
sg518
I8
sg519
I35
ssS"[('req0_a1', 'req0_u3'), ('req0_u3', 'req0_u1'), ('req0_u1', 'req0_u2_0'), ('req0_u1', 'req0_u2_1'), ('req0_u1', 'req0_u2_2'), ('req0_u1', 'req0_u2_3'), ('req0_u2_0', 'req0_u4_0'), ('req0_u4_0', 'req0_u5_0'), ('req0_u4_0', 'req0_u6_0'), ('req0_u6_0', 'req0_u7_0'), ('req0_u4_0', 'req0_u8_0'), ('req0_u8_0', 'req0_u9_0'), ('req0_u4_0', 'req0_u10_0'), ('req0_u5_0', 'req0_u11_0'), ('req0_u7_0', 'req0_u11_0'), ('req0_u9_0', 'req0_u11_0'), ('req0_u10_0', 'req0_u11_0'), ('req0_u11_0', 'req0_a2_0'), ('req0_u2_1', 'req0_u4_1'), ('req0_u4_1', 'req0_u5_1'), ('req0_u4_1', 'req0_u6_1'), ('req0_u6_1', 'req0_u7_1'), ('req0_u4_1', 'req0_u8_1'), ('req0_u8_1', 'req0_u9_1'), ('req0_u4_1', 'req0_u10_1'), ('req0_u5_1', 'req0_u11_1'), ('req0_u7_1', 'req0_u11_1'), ('req0_u9_1', 'req0_u11_1'), ('req0_u10_1', 'req0_u11_1'), ('req0_u11_1', 'req0_a2_1'), ('req0_u2_2', 'req0_u4_2'), ('req0_u4_2', 'req0_u5_2'), ('req0_u4_2', 'req0_u6_2'), ('req0_u6_2', 'req0_u7_2'), ('req0_u4_2', 'req0_u8_2'), ('req0_u8_2', 'req0_u9_2'), ('req0_u4_2', 'req0_u10_2'), ('req0_u5_2', 'req0_u11_2'), ('req0_u7_2', 'req0_u11_2'), ('req0_u9_2', 'req0_u11_2'), ('req0_u10_2', 'req0_u11_2'), ('req0_u11_2', 'req0_a2_2'), ('req0_u2_3', 'req0_u4_3'), ('req0_u4_3', 'req0_u5_3'), ('req0_u4_3', 'req0_u6_3'), ('req0_u6_3', 'req0_u7_3'), ('req0_u4_3', 'req0_u8_3'), ('req0_u8_3', 'req0_u9_3'), ('req0_u4_3', 'req0_u10_3'), ('req0_u5_3', 'req0_u11_3'), ('req0_u7_3', 'req0_u11_3'), ('req0_u9_3', 'req0_u11_3'), ('req0_u10_3', 'req0_u11_3'), ('req0_u11_3', 'req0_a2_3')]"
p1404
(dp1405
g3
(dp1406
S'CACHE'
p1407
I4
sS'LB'
p1408
I1
sS'FW'
p1409
I4
sS'WAPGW'
p1410
I4
sS'IDS'
p1411
I4
sS'PCTL'
p1412
I4
sS'IPS'
p1413
I4
sS'VOPT'
p1414
I4
sS'HHE'
p1415
I0
sS'AV'
p1416
I1
sS'WOPT'
p1417
I4
sS'PRX'
p1418
I0
sS'DPI'
p1419
I4
ssg18
F200436.0
sg19
I12
sg20
F0.06403337777777778
sg21
(dp1420
I0
F0.20484569000000002
sI1
F0.28125
sI2
F0.0
sI3
F0.8690628125
sI4
F0.875
sI5
F0.0
sI6
F0.0
sI7
F0.20484569000000002
sI8
F0.13031439
sI9
F0.0
sI10
F0.06579564000000002
sI11
F0.07453130000000001
ssg23
F0.42462160171984015
sg24
I01
sg25
F29778.0862
sg26
F1500.0
sg27
F750.0
sg28
F100.0
sg29
g30
sg31
F1403.949933333333
sg32
F2.1231080085992007
sg33
(dp1421
(I4
I7
tp1422
F1312.5
s(I5
I6
tp1423
F1312.5
s(I2
I8
tp1424
F1500.0
s(I5
I1
tp1425
F1500.0
s(I2
I5
tp1426
F1500.0
s(I1
I11
tp1427
F1312.5
s(I10
I3
tp1428
F1500.0
s(I3
I10
tp1429
F962.2489999999998
s(I6
I3
tp1430
F1312.5
s(I1
I5
tp1431
F1312.5
s(I11
I1
tp1432
F1500.0
s(I3
I6
tp1433
F1500.0
s(I4
I1
tp1434
F750.0
s(I10
I9
tp1435
F1500.0
s(I9
I7
tp1436
F1500.0
s(I6
I4
tp1437
F1500.0
s(I8
I2
tp1438
F1500.0
s(I8
I11
tp1439
F1500.0
s(I9
I3
tp1440
F1500.0
s(I1
I4
tp1441
F1312.5
s(I9
I10
tp1442
F1500.0
s(I3
I9
tp1443
F1500.0
s(I1
I0
tp1444
F1312.5
s(I6
I5
tp1445
F1500.0
s(I7
I9
tp1446
F1500.0
s(I0
I1
tp1447
F1500.0
s(I4
I6
tp1448
F1500.0
s(I11
I8
tp1449
F1218.7489999999998
s(I7
I4
tp1450
F1500.0
s(I5
I2
tp1451
F1500.0
ssg65
(dp1452
I0
F3975.7715500000004
sI1
F575.0
sI2
F5000.0
sI3
F104.74975
sI4
F100.0
sI5
F800.0
sI6
F800.0
sI7
F3975.7715500000004
sI8
F4348.42805
sI9
F800.0
sI10
F4671.0218
sI11
F4627.3435
ssg67
F42118.49799999999
sg68
(dp1453
g1407
(lp1454
I0
aI3
aI7
aI8
asg1408
(lp1455
I1
asg1409
(lp1456
I0
aI3
aI7
aI8
asg1410
(lp1457
I0
aI3
aI7
aI11
asg1411
(lp1458
I0
aI7
aI8
aI10
asg1412
(lp1459
I0
aI3
aI7
aI8
asg1413
(lp1460
I0
aI7
aI8
aI10
asg1414
(lp1461
I0
aI3
aI7
aI8
asg1415
(lp1462
sg1416
(lp1463
I4
asg1417
(lp1464
I0
aI3
aI7
aI11
asg1418
(lp1465
sg1419
(lp1466
I0
aI3
aI7
aI11
assg83
(dp1467
(S'req0_u1'
p1468
S'req0_u2_1'
p1469
tp1470
(lp1471
(I1
I4
tp1472
a(I4
I7
tp1473
as(S'req0_u8_0'
p1474
S'req0_u9_0'
p1475
tp1476
(lp1477
(I3
I3
tp1478
as(S'req0_u6_1'
p1479
S'req0_u7_1'
p1480
tp1481
(lp1482
(I7
I7
tp1483
as(S'req0_u11_0'
p1484
S'req0_a2_0'
p1485
tp1486
(lp1487
(I10
I10
tp1488
as(S'req0_u5_0'
p1489
S'req0_u11_0'
p1490
tp1491
(lp1492
(I3
I10
tp1493
as(S'req0_u4_3'
p1494
S'req0_u8_3'
p1495
tp1496
(lp1497
(I11
I8
tp1498
as(S'req0_u4_3'
p1499
S'req0_u5_3'
p1500
tp1501
(lp1502
(I11
I11
tp1503
as(S'req0_u5_1'
p1504
S'req0_u11_1'
p1505
tp1506
(lp1507
(I7
I7
tp1508
as(S'req0_u9_3'
p1509
S'req0_u11_3'
p1510
tp1511
(lp1512
(I8
I8
tp1513
as(S'req0_u2_1'
p1514
S'req0_u4_1'
p1515
tp1516
(lp1517
(I7
I7
tp1518
as(g1468
S'req0_u2_2'
p1519
tp1520
(lp1521
(I1
I0
tp1522
as(S'req0_u4_2'
p1523
S'req0_u6_2'
p1524
tp1525
(lp1526
(I0
I0
tp1527
as(S'req0_u7_0'
p1528
S'req0_u11_0'
p1529
tp1530
(lp1531
(I3
I10
tp1532
as(S'req0_u4_1'
p1533
S'req0_u8_1'
p1534
tp1535
(lp1536
(I7
I7
tp1537
as(S'req0_u10_3'
p1538
S'req0_u11_3'
p1539
tp1540
(lp1541
(I8
I8
tp1542
as(S'req0_u4_2'
p1543
S'req0_u5_2'
p1544
tp1545
(lp1546
(I0
I0
tp1547
as(S'req0_u7_1'
p1548
S'req0_u11_1'
p1549
tp1550
(lp1551
(I7
I7
tp1552
as(S'req0_u4_0'
p1553
S'req0_u8_0'
p1554
tp1555
(lp1556
(I3
I3
tp1557
as(S'req0_u4_1'
p1558
S'req0_u5_1'
p1559
tp1560
(lp1561
(I7
I7
tp1562
as(S'req0_u4_1'
p1563
S'req0_u10_1'
p1564
tp1565
(lp1566
(I7
I7
tp1567
as(S'req0_u4_3'
p1568
S'req0_u6_3'
p1569
tp1570
(lp1571
(I11
I8
tp1572
as(S'req0_u4_0'
p1573
S'req0_u5_0'
p1574
tp1575
(lp1576
(I3
I3
tp1577
as(S'req0_u4_0'
p1578
S'req0_u6_0'
p1579
tp1580
(lp1581
(I3
I3
tp1582
as(g1468
S'req0_u2_3'
p1583
tp1584
(lp1585
(I1
I11
tp1586
as(S'req0_u4_0'
p1587
S'req0_u10_0'
p1588
tp1589
(lp1590
(I3
I10
tp1591
as(S'req0_u10_2'
p1592
S'req0_u11_2'
p1593
tp1594
(lp1595
(I0
I0
tp1596
as(S'req0_u11_3'
p1597
S'req0_a2_3'
p1598
tp1599
(lp1600
(I8
I8
tp1601
as(S'req0_u4_1'
p1602
S'req0_u6_1'
p1603
tp1604
(lp1605
(I7
I7
tp1606
as(S'req0_u6_2'
p1607
S'req0_u7_2'
p1608
tp1609
(lp1610
(I0
I0
tp1611
as(S'req0_u2_0'
p1612
S'req0_u4_0'
p1613
tp1614
(lp1615
(I3
I3
tp1616
as(S'req0_u10_1'
p1617
S'req0_u11_1'
p1618
tp1619
(lp1620
(I7
I7
tp1621
as(S'req0_u3'
p1622
g1468
tp1623
(lp1624
(I4
I1
tp1625
as(S'req0_u10_0'
p1626
S'req0_u11_0'
p1627
tp1628
(lp1629
(I10
I10
tp1630
as(S'req0_u2_2'
p1631
S'req0_u4_2'
p1632
tp1633
(lp1634
(I0
I0
tp1635
as(S'req0_u4_3'
p1636
S'req0_u10_3'
p1637
tp1638
(lp1639
(I11
I8
tp1640
as(S'req0_u4_2'
p1641
S'req0_u10_2'
p1642
tp1643
(lp1644
(I0
I0
tp1645
as(S'req0_u9_2'
p1646
S'req0_u11_2'
p1647
tp1648
(lp1649
(I0
I0
tp1650
as(S'req0_u2_3'
p1651
S'req0_u4_3'
p1652
tp1653
(lp1654
(I11
I11
tp1655
as(S'req0_a1'
p1656
g1622
tp1657
(lp1658
(I4
I4
tp1659
as(S'req0_u7_3'
p1660
S'req0_u11_3'
p1661
tp1662
(lp1663
(I8
I8
tp1664
as(S'req0_u6_3'
p1665
S'req0_u7_3'
p1666
tp1667
(lp1668
(I8
I8
tp1669
as(S'req0_u8_2'
p1670
S'req0_u9_2'
p1671
tp1672
(lp1673
(I0
I0
tp1674
as(S'req0_u4_2'
p1675
S'req0_u8_2'
p1676
tp1677
(lp1678
(I0
I0
tp1679
as(S'req0_u8_3'
p1680
S'req0_u9_3'
p1681
tp1682
(lp1683
(I8
I8
tp1684
as(g1468
S'req0_u2_0'
p1685
tp1686
(lp1687
(I1
I5
tp1688
a(I5
I6
tp1689
a(I6
I3
tp1690
as(S'req0_u9_0'
p1691
S'req0_u11_0'
p1692
tp1693
(lp1694
(I3
I10
tp1695
as(S'req0_u11_2'
p1696
S'req0_a2_2'
p1697
tp1698
(lp1699
(I0
I0
tp1700
as(S'req0_u5_2'
p1701
S'req0_u11_2'
p1702
tp1703
(lp1704
(I0
I0
tp1705
as(S'req0_u9_1'
p1706
S'req0_u11_1'
p1707
tp1708
(lp1709
(I7
I7
tp1710
as(S'req0_u8_1'
p1711
S'req0_u9_1'
p1712
tp1713
(lp1714
(I7
I7
tp1715
as(S'req0_u7_2'
p1716
S'req0_u11_2'
p1717
tp1718
(lp1719
(I0
I0
tp1720
as(S'req0_u6_0'
p1721
S'req0_u7_0'
p1722
tp1723
(lp1724
(I3
I3
tp1725
as(S'req0_u11_1'
p1726
S'req0_a2_1'
p1727
tp1728
(lp1729
(I7
I7
tp1730
as(S'req0_u5_3'
p1731
S'req0_u11_3'
p1732
tp1733
(lp1734
(I11
I8
tp1735
assg368
(dp1736
(I4
I7
tp1737
F0.125
s(I5
I6
tp1738
F0.125
s(I2
I8
tp1739
F0.0
s(I5
I1
tp1740
F0.0
s(I2
I5
tp1741
F0.0
s(I1
I11
tp1742
F0.125
s(I10
I3
tp1743
F0.0
s(I3
I10
tp1744
F0.3585006666666667
s(I6
I3
tp1745
F0.125
s(I1
I5
tp1746
F0.125
s(I11
I1
tp1747
F0.0
s(I3
I6
tp1748
F0.0
s(I4
I1
tp1749
F0.5
s(I10
I9
tp1750
F0.0
s(I9
I7
tp1751
F0.0
s(I6
I4
tp1752
F0.0
s(I8
I2
tp1753
F0.0
s(I8
I11
tp1754
F0.0
s(I9
I3
tp1755
F0.0
s(I1
I4
tp1756
F0.125
s(I9
I10
tp1757
F0.0
s(I3
I9
tp1758
F0.0
s(I1
I0
tp1759
F0.125
s(I6
I5
tp1760
F0.0
s(I7
I9
tp1761
F0.0
s(I0
I1
tp1762
F0.0
s(I4
I6
tp1763
F0.0
s(I11
I8
tp1764
F0.18750066666666665
s(I7
I4
tp1765
F0.0
s(I5
I2
tp1766
F0.0
ssg400
F42118.49799999999
sg401
(dp1767
S'req0_u2_2'
p1768
(lp1769
I0
asS'req0_u2_3'
p1770
(lp1771
I11
asS'req0_u2_0'
p1772
(lp1773
I3
asS'req0_u2_1'
p1774
(lp1775
I7
asS'req0_u9_1'
p1776
(lp1777
I7
asS'req0_u9_0'
p1778
(lp1779
I3
asS'req0_a2_0'
p1780
(lp1781
I10
asS'req0_a2_1'
p1782
(lp1783
I7
asS'req0_u4_0'
p1784
(lp1785
I3
asS'req0_u4_1'
p1786
(lp1787
I7
asS'req0_u4_2'
p1788
(lp1789
I0
asS'req0_u4_3'
p1790
(lp1791
I11
asS'req0_u5_1'
p1792
(lp1793
I7
asS'req0_u5_0'
p1794
(lp1795
I3
asS'req0_u5_3'
p1796
(lp1797
I11
asS'req0_u5_2'
p1798
(lp1799
I0
asS'req0_a2_3'
p1800
(lp1801
I8
asS'req0_u9_3'
p1802
(lp1803
I8
asS'req0_a2_2'
p1804
(lp1805
I0
asg449
(lp1806
I4
asS'req0_u9_2'
p1807
(lp1808
I0
asg1354
(lp1809
I4
asg453
(lp1810
I1
asS'req0_u6_2'
p1811
(lp1812
I0
asS'req0_u6_3'
p1813
(lp1814
I8
asS'req0_u6_0'
p1815
(lp1816
I3
asS'req0_u6_1'
p1817
(lp1818
I7
asS'req0_u11_1'
p1819
(lp1820
I7
asS'req0_u11_0'
p1821
(lp1822
I10
asS'req0_u11_3'
p1823
(lp1824
I8
asS'req0_u11_2'
p1825
(lp1826
I0
asS'req0_u7_3'
p1827
(lp1828
I8
asS'req0_u7_2'
p1829
(lp1830
I0
asS'req0_u7_1'
p1831
(lp1832
I7
asS'req0_u7_0'
p1833
(lp1834
I3
asS'req0_u10_0'
p1835
(lp1836
I10
asS'req0_u10_1'
p1837
(lp1838
I7
asS'req0_u10_2'
p1839
(lp1840
I0
asS'req0_u10_3'
p1841
(lp1842
I8
asS'req0_u8_0'
p1843
(lp1844
I3
asS'req0_u8_1'
p1845
(lp1846
I7
asS'req0_u8_2'
p1847
(lp1848
I0
asS'req0_u8_3'
p1849
(lp1850
I8
assg495
(dp1851
(g497
g498
tp1852
F0.1365727089913319
s(g500
g501
tp1853
F0.11615626792049279
s(g503
g504
tp1854
F0.20392243340263128
s(g506
g507
tp1855
F0.07412559183534408
s(g509
g510
tp1856
I-1
ssg512
I38
sg513
F5000.0
sg514
I42
sg515
F2481.5071833333336
sg516
I4
sg517
F0.22547046020833336
sg518
I8
sg519
I38
ssS"[('req0_a1', 'req0_u1'), ('req0_u1', 'req0_u3_0'), ('req0_u1', 'req0_u3_1'), ('req0_u1', 'req0_u3_2'), ('req0_u1', 'req0_u3_3'), ('req0_u3_0', 'req0_u2_0'), ('req0_u3_1', 'req0_u2_1'), ('req0_u3_2', 'req0_u2_2'), ('req0_u3_3', 'req0_u2_3'), ('req0_u2_0', 'req0_u4_0'), ('req0_u4_0', 'req0_u5_0'), ('req0_u4_0', 'req0_u7_0'), ('req0_u7_0', 'req0_u6_0'), ('req0_u4_0', 'req0_u8_0'), ('req0_u8_0', 'req0_u9_0'), ('req0_u4_0', 'req0_u10_0'), ('req0_u5_0', 'req0_u11_0'), ('req0_u6_0', 'req0_u11_0'), ('req0_u9_0', 'req0_u11_0'), ('req0_u10_0', 'req0_u11_0'), ('req0_u11_0', 'req0_a2_0'), ('req0_u2_1', 'req0_u4_1'), ('req0_u4_1', 'req0_u5_1'), ('req0_u4_1', 'req0_u7_1'), ('req0_u7_1', 'req0_u6_1'), ('req0_u4_1', 'req0_u8_1'), ('req0_u8_1', 'req0_u9_1'), ('req0_u4_1', 'req0_u10_1'), ('req0_u5_1', 'req0_u11_1'), ('req0_u6_1', 'req0_u11_1'), ('req0_u9_1', 'req0_u11_1'), ('req0_u10_1', 'req0_u11_1'), ('req0_u11_1', 'req0_a2_1'), ('req0_u2_2', 'req0_u4_2'), ('req0_u4_2', 'req0_u5_2'), ('req0_u4_2', 'req0_u7_2'), ('req0_u7_2', 'req0_u6_2'), ('req0_u4_2', 'req0_u8_2'), ('req0_u8_2', 'req0_u9_2'), ('req0_u4_2', 'req0_u10_2'), ('req0_u5_2', 'req0_u11_2'), ('req0_u6_2', 'req0_u11_2'), ('req0_u9_2', 'req0_u11_2'), ('req0_u10_2', 'req0_u11_2'), ('req0_u11_2', 'req0_a2_2'), ('req0_u2_3', 'req0_u4_3'), ('req0_u4_3', 'req0_u5_3'), ('req0_u4_3', 'req0_u7_3'), ('req0_u7_3', 'req0_u6_3'), ('req0_u4_3', 'req0_u8_3'), ('req0_u8_3', 'req0_u9_3'), ('req0_u4_3', 'req0_u10_3'), ('req0_u5_3', 'req0_u11_3'), ('req0_u6_3', 'req0_u11_3'), ('req0_u9_3', 'req0_u11_3'), ('req0_u10_3', 'req0_u11_3'), ('req0_u11_3', 'req0_a2_3')]"
p1857
(dp1858
g3
(dp1859
S'CACHE'
p1860
I4
sS'LB'
p1861
I1
sS'FW'
p1862
I4
sS'WAPGW'
p1863
I4
sS'IDS'
p1864
I4
sS'PCTL'
p1865
I4
sS'IPS'
p1866
I4
sS'VOPT'
p1867
I4
sS'HHE'
p1868
I0
sS'AV'
p1869
I4
sS'WOPT'
p1870
I4
sS'PRX'
p1871
I0
sS'DPI'
p1872
I4
ssg18
F172395.0
sg19
I12
sg20
F0.04583333333333333
sg21
(dp1873
I0
F0.23635819000000002
sI1
F0.21875
sI2
F0.0
sI3
F0.21875
sI4
F0.375
sI5
F0.0
sI6
F0.0
sI7
F0.23635819000000008
sI8
F0.20135819000000002
sI9
F0.0
sI10
F0.20135819000000002
sI11
F0.0
ssg23
F0.29575414004014555
sg24
I01
sg25
F29772.8362
sg26
F1500.0
sg27
F1000.0
sg28
F500.0
sg29
g30
sg31
F1431.25
sg32
F1.4787707002007278
sg33
(dp1874
(I4
I7
tp1875
F1250.0
s(I5
I6
tp1876
F1500.0
s(I2
I8
tp1877
F1500.0
s(I5
I1
tp1878
F1500.0
s(I2
I5
tp1879
F1500.0
s(I1
I11
tp1880
F1312.5
s(I10
I3
tp1881
F1500.0
s(I3
I10
tp1882
F1312.5
s(I6
I3
tp1883
F1250.0
s(I1
I5
tp1884
F1500.0
s(I11
I1
tp1885
F1500.0
s(I3
I6
tp1886
F1500.0
s(I4
I1
tp1887
F1000.0
s(I10
I9
tp1888
F1500.0
s(I9
I7
tp1889
F1500.0
s(I6
I4
tp1890
F1500.0
s(I8
I2
tp1891
F1500.0
s(I8
I11
tp1892
F1500.0
s(I9
I3
tp1893
F1500.0
s(I1
I4
tp1894
F1500.0
s(I9
I10
tp1895
F1500.0
s(I3
I9
tp1896
F1500.0
s(I1
I0
tp1897
F1250.0
s(I6
I5
tp1898
F1500.0
s(I7
I9
tp1899
F1500.0
s(I0
I1
tp1900
F1500.0
s(I4
I6
tp1901
F1250.0
s(I11
I8
tp1902
F1312.5
s(I7
I4
tp1903
F1500.0
s(I5
I2
tp1904
F1500.0
ssg65
(dp1905
I0
F3818.20905
sI1
F625.0
sI2
F5000.0
sI3
F625.0
sI4
F500.0
sI5
F800.0
sI6
F800.0
sI7
F3818.20905
sI8
F3993.2090500000004
sI9
F800.0
sI10
F3993.20905
sI11
F5000.0
ssg67
F42937.5
sg68
(dp1906
g1860
(lp1907
I0
aI7
aI8
aI10
asg1861
(lp1908
I4
asg1862
(lp1909
I0
aI7
aI8
aI10
asg1863
(lp1910
I0
aI7
aI8
aI10
asg1864
(lp1911
I0
aI7
aI8
aI10
asg1865
(lp1912
I0
aI7
aI8
aI10
asg1866
(lp1913
I0
aI7
aI8
aI10
asg1867
(lp1914
I0
aI7
aI8
aI10
asg1868
(lp1915
sg1869
(lp1916
I0
aI1
aI3
aI7
asg1870
(lp1917
I0
aI7
aI8
aI10
asg1871
(lp1918
sg1872
(lp1919
I0
aI7
aI8
aI10
assg83
(dp1920
(S'req0_u8_0'
p1921
S'req0_u9_0'
p1922
tp1923
(lp1924
(I10
I10
tp1925
as(S'req0_u11_0'
p1926
S'req0_a2_0'
p1927
tp1928
(lp1929
(I10
I10
tp1930
as(S'req0_u5_0'
p1931
S'req0_u11_0'
p1932
tp1933
(lp1934
(I10
I10
tp1935
as(S'req0_u4_3'
p1936
S'req0_u8_3'
p1937
tp1938
(lp1939
(I8
I8
tp1940
as(S'req0_u3_0'
p1941
S'req0_u2_0'
p1942
tp1943
(lp1944
(I3
I10
tp1945
as(S'req0_u5_1'
p1946
S'req0_u11_1'
p1947
tp1948
(lp1949
(I7
I7
tp1950
as(S'req0_u10_1'
p1951
S'req0_u11_1'
p1952
tp1953
(lp1954
(I7
I7
tp1955
as(S'req0_u5_2'
p1956
S'req0_u11_2'
p1957
tp1958
(lp1959
(I0
I0
tp1960
as(S'req0_u6_2'
p1961
S'req0_u11_2'
p1962
tp1963
(lp1964
(I0
I0
tp1965
as(S'req0_u9_3'
p1966
S'req0_u11_3'
p1967
tp1968
(lp1969
(I8
I8
tp1970
as(S'req0_u1'
p1971
S'req0_u3_0'
p1972
tp1973
(lp1974
(I4
I6
tp1975
a(I6
I3
tp1976
as(S'req0_u10_2'
p1977
S'req0_u11_2'
p1978
tp1979
(lp1980
(I0
I0
tp1981
as(S'req0_a1'
p1982
g1971
tp1983
(lp1984
(I4
I4
tp1985
as(S'req0_u3_1'
p1986
S'req0_u2_1'
p1987
tp1988
(lp1989
(I7
I7
tp1990
as(S'req0_u3_2'
p1991
S'req0_u2_2'
p1992
tp1993
(lp1994
(I0
I0
tp1995
as(S'req0_u2_1'
p1996
S'req0_u4_1'
p1997
tp1998
(lp1999
(I7
I7
tp2000
as(S'req0_u11_3'
p2001
S'req0_a2_3'
p2002
tp2003
(lp2004
(I8
I8
tp2005
as(S'req0_u3_3'
p2006
S'req0_u2_3'
p2007
tp2008
(lp2009
(I1
I11
tp2010
a(I11
I8
tp2011
as(S'req0_u4_1'
p2012
S'req0_u8_1'
p2013
tp2014
(lp2015
(I7
I7
tp2016
as(S'req0_u10_3'
p2017
S'req0_u11_3'
p2018
tp2019
(lp2020
(I8
I8
tp2021
as(S'req0_u4_2'
p2022
S'req0_u5_2'
p2023
tp2024
(lp2025
(I0
I0
tp2026
as(S'req0_u4_0'
p2027
S'req0_u8_0'
p2028
tp2029
(lp2030
(I10
I10
tp2031
as(S'req0_u4_1'
p2032
S'req0_u5_1'
p2033
tp2034
(lp2035
(I7
I7
tp2036
as(g1971
S'req0_u3_3'
p2037
tp2038
(lp2039
(I4
I1
tp2040
as(S'req0_u4_3'
p2041
S'req0_u7_3'
p2042
tp2043
(lp2044
(I8
I8
tp2045
as(S'req0_u4_0'
p2046
S'req0_u5_0'
p2047
tp2048
(lp2049
(I10
I10
tp2050
as(S'req0_u6_3'
p2051
S'req0_u11_3'
p2052
tp2053
(lp2054
(I8
I8
tp2055
as(S'req0_u7_2'
p2056
S'req0_u6_2'
p2057
tp2058
(lp2059
(I0
I0
tp2060
as(S'req0_u4_0'
p2061
S'req0_u10_0'
p2062
tp2063
(lp2064
(I10
I10
tp2065
as(S'req0_u6_1'
p2066
S'req0_u11_1'
p2067
tp2068
(lp2069
(I7
I7
tp2070
as(S'req0_u4_3'
p2071
S'req0_u5_3'
p2072
tp2073
(lp2074
(I8
I8
tp2075
as(S'req0_u4_1'
p2076
S'req0_u10_1'
p2077
tp2078
(lp2079
(I7
I7
tp2080
as(S'req0_u7_3'
p2081
S'req0_u6_3'
p2082
tp2083
(lp2084
(I8
I8
tp2085
as(S'req0_u2_0'
p2086
S'req0_u4_0'
p2087
tp2088
(lp2089
(I10
I10
tp2090
as(S'req0_u6_0'
p2091
S'req0_u11_0'
p2092
tp2093
(lp2094
(I10
I10
tp2095
as(S'req0_u10_0'
p2096
S'req0_u11_0'
p2097
tp2098
(lp2099
(I10
I10
tp2100
as(S'req0_u7_1'
p2101
S'req0_u6_1'
p2102
tp2103
(lp2104
(I7
I7
tp2105
as(S'req0_u2_2'
p2106
S'req0_u4_2'
p2107
tp2108
(lp2109
(I0
I0
tp2110
as(S'req0_u4_3'
p2111
S'req0_u10_3'
p2112
tp2113
(lp2114
(I8
I8
tp2115
as(S'req0_u4_2'
p2116
S'req0_u10_2'
p2117
tp2118
(lp2119
(I0
I0
tp2120
as(S'req0_u9_2'
p2121
S'req0_u11_2'
p2122
tp2123
(lp2124
(I0
I0
tp2125
as(S'req0_u7_0'
p2126
S'req0_u6_0'
p2127
tp2128
(lp2129
(I10
I10
tp2130
as(S'req0_u2_3'
p2131
S'req0_u4_3'
p2132
tp2133
(lp2134
(I8
I8
tp2135
as(S'req0_u8_2'
p2136
S'req0_u9_2'
p2137
tp2138
(lp2139
(I0
I0
tp2140
as(S'req0_u4_2'
p2141
S'req0_u7_2'
p2142
tp2143
(lp2144
(I0
I0
tp2145
as(S'req0_u8_3'
p2146
S'req0_u9_3'
p2147
tp2148
(lp2149
(I8
I8
tp2150
as(S'req0_u4_2'
p2151
S'req0_u8_2'
p2152
tp2153
(lp2154
(I0
I0
tp2155
as(S'req0_u9_0'
p2156
S'req0_u11_0'
p2157
tp2158
(lp2159
(I10
I10
tp2160
as(S'req0_u11_2'
p2161
S'req0_a2_2'
p2162
tp2163
(lp2164
(I0
I0
tp2165
as(g1971
S'req0_u3_2'
p2166
tp2167
(lp2168
(I1
I0
tp2169
a(I4
I1
tp2170
as(S'req0_u4_0'
p2171
S'req0_u7_0'
p2172
tp2173
(lp2174
(I10
I10
tp2175
as(S'req0_u9_1'
p2176
S'req0_u11_1'
p2177
tp2178
(lp2179
(I7
I7
tp2180
as(S'req0_u4_1'
p2181
S'req0_u7_1'
p2182
tp2183
(lp2184
(I7
I7
tp2185
as(S'req0_u8_1'
p2186
S'req0_u9_1'
p2187
tp2188
(lp2189
(I7
I7
tp2190
as(g1971
S'req0_u3_1'
p2191
tp2192
(lp2193
(I4
I7
tp2194
as(S'req0_u11_1'
p2195
S'req0_a2_1'
p2196
tp2197
(lp2198
(I7
I7
tp2199
as(S'req0_u5_3'
p2200
S'req0_u11_3'
p2201
tp2202
(lp2203
(I8
I8
tp2204
assg368
(dp2205
(I4
I7
tp2206
F0.16666666666666666
s(I5
I6
tp2207
F0.0
s(I2
I8
tp2208
F0.0
s(I5
I1
tp2209
F0.0
s(I2
I5
tp2210
F0.0
s(I1
I11
tp2211
F0.125
s(I10
I3
tp2212
F0.0
s(I3
I10
tp2213
F0.125
s(I6
I3
tp2214
F0.16666666666666666
s(I1
I5
tp2215
F0.0
s(I11
I1
tp2216
F0.0
s(I3
I6
tp2217
F0.0
s(I4
I1
tp2218
F0.3333333333333333
s(I10
I9
tp2219
F0.0
s(I9
I7
tp2220
F0.0
s(I6
I4
tp2221
F0.0
s(I8
I2
tp2222
F0.0
s(I8
I11
tp2223
F0.0
s(I9
I3
tp2224
F0.0
s(I1
I4
tp2225
F0.0
s(I9
I10
tp2226
F0.0
s(I3
I9
tp2227
F0.0
s(I1
I0
tp2228
F0.16666666666666666
s(I6
I5
tp2229
F0.0
s(I7
I9
tp2230
F0.0
s(I0
I1
tp2231
F0.0
s(I4
I6
tp2232
F0.16666666666666666
s(I11
I8
tp2233
F0.125
s(I7
I4
tp2234
F0.0
s(I5
I2
tp2235
F0.0
ssg400
F42937.5
sg401
(dp2236
S'req0_u2_2'
p2237
(lp2238
I0
asS'req0_u2_3'
p2239
(lp2240
I8
asS'req0_u2_0'
p2241
(lp2242
I10
asS'req0_u2_1'
p2243
(lp2244
I7
asS'req0_u9_1'
p2245
(lp2246
I7
asS'req0_u9_0'
p2247
(lp2248
I10
asS'req0_a2_0'
p2249
(lp2250
I10
asS'req0_a2_1'
p2251
(lp2252
I7
asS'req0_u3_3'
p2253
(lp2254
I1
asS'req0_u3_2'
p2255
(lp2256
I0
asS'req0_u3_1'
p2257
(lp2258
I7
asS'req0_u3_0'
p2259
(lp2260
I3
asS'req0_u4_0'
p2261
(lp2262
I10
asS'req0_u4_1'
p2263
(lp2264
I7
asS'req0_u4_2'
p2265
(lp2266
I0
asS'req0_u4_3'
p2267
(lp2268
I8
asS'req0_u5_1'
p2269
(lp2270
I7
asS'req0_u5_0'
p2271
(lp2272
I10
asS'req0_u5_3'
p2273
(lp2274
I8
asS'req0_u5_2'
p2275
(lp2276
I0
asS'req0_a2_3'
p2277
(lp2278
I8
asS'req0_u9_3'
p2279
(lp2280
I8
asS'req0_a2_2'
p2281
(lp2282
I0
asg449
(lp2283
I4
asS'req0_u9_2'
p2284
(lp2285
I0
asg453
(lp2286
I4
asS'req0_u6_2'
p2287
(lp2288
I0
asS'req0_u6_3'
p2289
(lp2290
I8
asS'req0_u6_0'
p2291
(lp2292
I10
asS'req0_u6_1'
p2293
(lp2294
I7
asS'req0_u11_1'
p2295
(lp2296
I7
asS'req0_u11_0'
p2297
(lp2298
I10
asS'req0_u11_3'
p2299
(lp2300
I8
asS'req0_u11_2'
p2301
(lp2302
I0
asS'req0_u7_3'
p2303
(lp2304
I8
asS'req0_u7_2'
p2305
(lp2306
I0
asS'req0_u7_1'
p2307
(lp2308
I7
asS'req0_u7_0'
p2309
(lp2310
I10
asS'req0_u10_0'
p2311
(lp2312
I10
asS'req0_u10_1'
p2313
(lp2314
I7
asS'req0_u10_2'
p2315
(lp2316
I0
asS'req0_u10_3'
p2317
(lp2318
I8
asS'req0_u8_0'
p2319
(lp2320
I10
asS'req0_u8_1'
p2321
(lp2322
I7
asS'req0_u8_2'
p2323
(lp2324
I0
asS'req0_u8_3'
p2325
(lp2326
I8
assg495
(dp2327
(g497
g498
tp2328
F0.05296974925892393
s(g500
g501
tp2329
F0.1161562679199099
s(g503
g504
tp2330
F0.12644106603600558
s(g506
g507
tp2331
F0.07412559183534254
s(g509
g510
tp2332
I-1
ssg512
I41
sg513
F5000.0
sg514
I42
sg515
F2481.0696833333336
sg516
I7
sg517
F0.14066106333333336
sg518
I7
sg519
I41
ssS"[('req0_a1', 'req0_u2'), ('req0_u2', 'req0_u1'), ('req0_u1', 'req0_u3_0'), ('req0_u1', 'req0_u3_1'), ('req0_u1', 'req0_u3_2'), ('req0_u1', 'req0_u3_3'), ('req0_u3_0', 'req0_u4_0'), ('req0_u4_0', 'req0_u5_0'), ('req0_u4_0', 'req0_u6_0'), ('req0_u6_0', 'req0_u7_0'), ('req0_u4_0', 'req0_u8_0'), ('req0_u8_0', 'req0_u9_0'), ('req0_u4_0', 'req0_u10_0'), ('req0_u5_0', 'req0_u11_0'), ('req0_u7_0', 'req0_u11_0'), ('req0_u9_0', 'req0_u11_0'), ('req0_u10_0', 'req0_u11_0'), ('req0_u11_0', 'req0_a2_0'), ('req0_u3_1', 'req0_u4_1'), ('req0_u4_1', 'req0_u5_1'), ('req0_u4_1', 'req0_u6_1'), ('req0_u6_1', 'req0_u7_1'), ('req0_u4_1', 'req0_u8_1'), ('req0_u8_1', 'req0_u9_1'), ('req0_u4_1', 'req0_u10_1'), ('req0_u5_1', 'req0_u11_1'), ('req0_u7_1', 'req0_u11_1'), ('req0_u9_1', 'req0_u11_1'), ('req0_u10_1', 'req0_u11_1'), ('req0_u11_1', 'req0_a2_1'), ('req0_u3_2', 'req0_u4_2'), ('req0_u4_2', 'req0_u5_2'), ('req0_u4_2', 'req0_u6_2'), ('req0_u6_2', 'req0_u7_2'), ('req0_u4_2', 'req0_u8_2'), ('req0_u8_2', 'req0_u9_2'), ('req0_u4_2', 'req0_u10_2'), ('req0_u5_2', 'req0_u11_2'), ('req0_u7_2', 'req0_u11_2'), ('req0_u9_2', 'req0_u11_2'), ('req0_u10_2', 'req0_u11_2'), ('req0_u11_2', 'req0_a2_2'), ('req0_u3_3', 'req0_u4_3'), ('req0_u4_3', 'req0_u5_3'), ('req0_u4_3', 'req0_u6_3'), ('req0_u6_3', 'req0_u7_3'), ('req0_u4_3', 'req0_u8_3'), ('req0_u8_3', 'req0_u9_3'), ('req0_u4_3', 'req0_u10_3'), ('req0_u5_3', 'req0_u11_3'), ('req0_u7_3', 'req0_u11_3'), ('req0_u9_3', 'req0_u11_3'), ('req0_u10_3', 'req0_u11_3'), ('req0_u11_3', 'req0_a2_3')]"
p2333
(dp2334
g3
(dp2335
S'CACHE'
p2336
I4
sS'LB'
p2337
I1
sS'FW'
p2338
I4
sS'WAPGW'
p2339
I4
sS'IDS'
p2340
I4
sS'PCTL'
p2341
I4
sS'IPS'
p2342
I4
sS'VOPT'
p2343
I4
sS'HHE'
p2344
I0
sS'AV'
p2345
I4
sS'WOPT'
p2346
I1
sS'PRX'
p2347
I0
sS'DPI'
p2348
I4
ssg18
F229435.0
sg19
I12
sg20
F0.1058719111111111
sg21
(dp2349
I0
F0.23484569000000002
sI1
F0.890625
sI2
F0.0
sI3
F0.2292194375
sI4
F0.75
sI5
F0.0
sI6
F0.3515625
sI7
F0.23484569000000002
sI8
F0.23484569000000002
sI9
F0.0
sI10
F0.08942058000000001
sI11
F0.0
ssg23
F0.4246216017195855
sg24
I01
sg25
F29053.086200000005
sg26
F1500.0
sg27
F0.0
sg28
F87.5
sg29
g30
sg31
F1341.1921333333332
sg32
F2.1231080085979275
sg33
(dp2350
(I4
I7
tp2351
F1125.0
s(I5
I6
tp2352
F1218.75
s(I2
I8
tp2353
F1500.0
s(I5
I1
tp2354
F1500.0
s(I2
I5
tp2355
F1500.0
s(I1
I11
tp2356
F1125.0
s(I10
I3
tp2357
F1500.0
s(I3
I10
tp2358
F965.7649999999999
s(I6
I3
tp2359
F1207.4989999999998
s(I1
I5
tp2360
F1218.75
s(I11
I1
tp2361
F1500.0
s(I3
I6
tp2362
F1500.0
s(I4
I1
tp2363
F0.0
s(I10
I9
tp2364
F1500.0
s(I9
I7
tp2365
F1500.0
s(I6
I4
tp2366
F1500.0
s(I8
I2
tp2367
F1500.0
s(I8
I11
tp2368
F1500.0
s(I9
I3
tp2369
F1500.0
s(I1
I4
tp2370
F1125.0
s(I9
I10
tp2371
F1500.0
s(I3
I9
tp2372
F1500.0
s(I1
I0
tp2373
F1125.0
s(I6
I5
tp2374
F1500.0
s(I7
I9
tp2375
F1500.0
s(I0
I1
tp2376
F1500.0
s(I4
I6
tp2377
F1500.0
s(I11
I8
tp2378
F1125.0
s(I7
I4
tp2379
F1500.0
s(I5
I2
tp2380
F1500.0
ssg65
(dp2381
I0
F3825.7715500000004
sI1
F87.5
sI2
F5000.0
sI3
F616.6244499999999
sI4
F200.0
sI5
F800.0
sI6
F518.75
sI7
F3825.7715500000004
sI8
F3825.7715500000004
sI9
F800.0
sI10
F4552.8971
sI11
F5000.0
ssg67
F40235.763999999996
sg68
(dp2382
g2336
(lp2383
I0
aI7
aI8
aI10
asg2337
(lp2384
I1
asg2338
(lp2385
I0
aI3
aI7
aI8
asg2339
(lp2386
I0
aI3
aI7
aI8
asg2340
(lp2387
I0
aI3
aI7
aI8
asg2341
(lp2388
I0
aI6
aI7
aI8
asg2342
(lp2389
I0
aI7
aI8
aI10
asg2343
(lp2390
I0
aI3
aI7
aI8
asg2344
(lp2391
sg2345
(lp2392
I0
aI1
aI7
aI8
asg2346
(lp2393
I4
asg2347
(lp2394
sg2348
(lp2395
I0
aI6
aI7
aI8
assg83
(dp2396
(S'req0_u3_0'
p2397
S'req0_u4_0'
p2398
tp2399
(lp2400
(I1
I5
tp2401
a(I5
I6
tp2402
as(S'req0_u8_0'
p2403
S'req0_u9_0'
p2404
tp2405
(lp2406
(I3
I10
tp2407
as(S'req0_u6_1'
p2408
S'req0_u7_1'
p2409
tp2410
(lp2411
(I7
I7
tp2412
as(S'req0_u11_0'
p2413
S'req0_a2_0'
p2414
tp2415
(lp2416
(I10
I10
tp2417
as(S'req0_u5_0'
p2418
S'req0_u11_0'
p2419
tp2420
(lp2421
(I3
I10
tp2422
as(S'req0_u3_1'
p2423
S'req0_u4_1'
p2424
tp2425
(lp2426
(I7
I7
tp2427
as(S'req0_u4_3'
p2428
S'req0_u5_3'
p2429
tp2430
(lp2431
(I8
I8
tp2432
as(S'req0_u5_1'
p2433
S'req0_u11_1'
p2434
tp2435
(lp2436
(I7
I7
tp2437
as(S'req0_u7_2'
p2438
S'req0_u11_2'
p2439
tp2440
(lp2441
(I0
I0
tp2442
as(S'req0_u3_2'
p2443
S'req0_u4_2'
p2444
tp2445
(lp2446
(I0
I0
tp2447
as(S'req0_u3_3'
p2448
S'req0_u4_3'
p2449
tp2450
(lp2451
(I8
I8
tp2452
as(S'req0_u1'
p2453
S'req0_u3_0'
p2454
tp2455
(lp2456
(I1
I1
tp2457
as(S'req0_u4_2'
p2458
S'req0_u10_2'
p2459
tp2460
(lp2461
(I0
I0
tp2462
as(S'req0_u7_0'
p2463
S'req0_u11_0'
p2464
tp2465
(lp2466
(I3
I10
tp2467
as(S'req0_u4_1'
p2468
S'req0_u8_1'
p2469
tp2470
(lp2471
(I7
I7
tp2472
as(S'req0_u10_3'
p2473
S'req0_u11_3'
p2474
tp2475
(lp2476
(I8
I8
tp2477
as(S'req0_u4_2'
p2478
S'req0_u5_2'
p2479
tp2480
(lp2481
(I0
I0
tp2482
as(S'req0_u7_1'
p2483
S'req0_u11_1'
p2484
tp2485
(lp2486
(I7
I7
tp2487
as(S'req0_u4_0'
p2488
S'req0_u8_0'
p2489
tp2490
(lp2491
(I6
I3
tp2492
as(S'req0_u4_1'
p2493
S'req0_u10_1'
p2494
tp2495
(lp2496
(I7
I7
tp2497
as(S'req0_u4_1'
p2498
S'req0_u5_1'
p2499
tp2500
(lp2501
(I7
I7
tp2502
as(g2453
S'req0_u3_3'
p2503
tp2504
(lp2505
(I1
I11
tp2506
a(I11
I8
tp2507
as(S'req0_u4_3'
p2508
S'req0_u6_3'
p2509
tp2510
(lp2511
(I8
I8
tp2512
as(S'req0_u4_0'
p2513
S'req0_u5_0'
p2514
tp2515
(lp2516
(I6
I3
tp2517
as(S'req0_u4_0'
p2518
S'req0_u6_0'
p2519
tp2520
(lp2521
(I6
I6
tp2522
as(S'req0_u6_3'
p2523
S'req0_u7_3'
p2524
tp2525
(lp2526
(I8
I8
tp2527
as(S'req0_u4_0'
p2528
S'req0_u10_0'
p2529
tp2530
(lp2531
(I6
I3
tp2532
as(S'req0_u10_2'
p2533
S'req0_u11_2'
p2534
tp2535
(lp2536
(I0
I0
tp2537
as(S'req0_u11_3'
p2538
S'req0_a2_3'
p2539
tp2540
(lp2541
(I8
I8
tp2542
as(S'req0_u4_1'
p2543
S'req0_u6_1'
p2544
tp2545
(lp2546
(I7
I7
tp2547
as(S'req0_u6_2'
p2548
S'req0_u7_2'
p2549
tp2550
(lp2551
(I0
I0
tp2552
as(S'req0_u4_3'
p2553
S'req0_u8_3'
p2554
tp2555
(lp2556
(I8
I8
tp2557
as(S'req0_u10_1'
p2558
S'req0_u11_1'
p2559
tp2560
(lp2561
(I7
I7
tp2562
as(S'req0_u4_2'
p2563
S'req0_u6_2'
p2564
tp2565
(lp2566
(I0
I0
tp2567
as(S'req0_u10_0'
p2568
S'req0_u11_0'
p2569
tp2570
(lp2571
(I3
I10
tp2572
as(S'req0_u4_3'
p2573
S'req0_u10_3'
p2574
tp2575
(lp2576
(I8
I8
tp2577
as(S'req0_u9_2'
p2578
S'req0_u11_2'
p2579
tp2580
(lp2581
(I0
I0
tp2582
as(g2453
S'req0_u3_2'
p2583
tp2584
(lp2585
(I1
I0
tp2586
as(S'req0_u9_3'
p2587
S'req0_u11_3'
p2588
tp2589
(lp2590
(I8
I8
tp2591
as(S'req0_u7_3'
p2592
S'req0_u11_3'
p2593
tp2594
(lp2595
(I8
I8
tp2596
as(S'req0_u8_2'
p2597
S'req0_u9_2'
p2598
tp2599
(lp2600
(I0
I0
tp2601
as(S'req0_u8_3'
p2602
S'req0_u9_3'
p2603
tp2604
(lp2605
(I8
I8
tp2606
as(S'req0_u4_2'
p2607
S'req0_u8_2'
p2608
tp2609
(lp2610
(I0
I0
tp2611
as(S'req0_u2'
p2612
g2453
tp2613
(lp2614
(I4
I1
tp2615
as(S'req0_u9_0'
p2616
S'req0_u11_0'
p2617
tp2618
(lp2619
(I10
I10
tp2620
as(S'req0_u11_2'
p2621
S'req0_a2_2'
p2622
tp2623
(lp2624
(I0
I0
tp2625
as(S'req0_u5_2'
p2626
S'req0_u11_2'
p2627
tp2628
(lp2629
(I0
I0
tp2630
as(S'req0_u9_1'
p2631
S'req0_u11_1'
p2632
tp2633
(lp2634
(I7
I7
tp2635
as(S'req0_a1'
p2636
g2612
tp2637
(lp2638
(I4
I4
tp2639
as(S'req0_u8_1'
p2640
S'req0_u9_1'
p2641
tp2642
(lp2643
(I7
I7
tp2644
as(g2453
S'req0_u3_1'
p2645
tp2646
(lp2647
(I1
I4
tp2648
a(I4
I7
tp2649
as(S'req0_u6_0'
p2650
S'req0_u7_0'
p2651
tp2652
(lp2653
(I6
I3
tp2654
as(S'req0_u11_1'
p2655
S'req0_a2_1'
p2656
tp2657
(lp2658
(I7
I7
tp2659
as(S'req0_u5_3'
p2660
S'req0_u11_3'
p2661
tp2662
(lp2663
(I8
I8
tp2664
assg368
(dp2665
(I4
I7
tp2666
F0.25
s(I5
I6
tp2667
F0.1875
s(I2
I8
tp2668
F0.0
s(I5
I1
tp2669
F0.0
s(I2
I5
tp2670
F0.0
s(I1
I11
tp2671
F0.25
s(I10
I3
tp2672
F0.0
s(I3
I10
tp2673
F0.3561566666666667
s(I6
I3
tp2674
F0.19500066666666666
s(I1
I5
tp2675
F0.1875
s(I11
I1
tp2676
F0.0
s(I3
I6
tp2677
F0.0
s(I4
I1
tp2678
F1.0
s(I10
I9
tp2679
F0.0
s(I9
I7
tp2680
F0.0
s(I6
I4
tp2681
F0.0
s(I8
I2
tp2682
F0.0
s(I8
I11
tp2683
F0.0
s(I9
I3
tp2684
F0.0
s(I1
I4
tp2685
F0.25
s(I9
I10
tp2686
F0.0
s(I3
I9
tp2687
F0.0
s(I1
I0
tp2688
F0.25
s(I6
I5
tp2689
F0.0
s(I7
I9
tp2690
F0.0
s(I0
I1
tp2691
F0.0
s(I4
I6
tp2692
F0.0
s(I11
I8
tp2693
F0.25
s(I7
I4
tp2694
F0.0
s(I5
I2
tp2695
F0.0
ssg400
F40235.763999999996
sg401
(dp2696
S'req0_u9_1'
p2697
(lp2698
I7
asS'req0_u9_0'
p2699
(lp2700
I10
asS'req0_a2_0'
p2701
(lp2702
I10
asS'req0_a2_1'
p2703
(lp2704
I7
asS'req0_u3_3'
p2705
(lp2706
I8
asS'req0_u3_2'
p2707
(lp2708
I0
asS'req0_u3_1'
p2709
(lp2710
I7
asS'req0_u3_0'
p2711
(lp2712
I1
asS'req0_u4_0'
p2713
(lp2714
I6
asS'req0_u4_1'
p2715
(lp2716
I7
asS'req0_u4_2'
p2717
(lp2718
I0
asS'req0_u4_3'
p2719
(lp2720
I8
asS'req0_u5_1'
p2721
(lp2722
I7
asS'req0_u5_0'
p2723
(lp2724
I3
asS'req0_u5_3'
p2725
(lp2726
I8
asS'req0_u5_2'
p2727
(lp2728
I0
asS'req0_a2_3'
p2729
(lp2730
I8
asS'req0_u9_3'
p2731
(lp2732
I8
asS'req0_a2_2'
p2733
(lp2734
I0
asg449
(lp2735
I4
asS'req0_u9_2'
p2736
(lp2737
I0
asg925
(lp2738
I4
asg453
(lp2739
I1
asS'req0_u6_2'
p2740
(lp2741
I0
asS'req0_u6_3'
p2742
(lp2743
I8
asS'req0_u6_0'
p2744
(lp2745
I6
asS'req0_u6_1'
p2746
(lp2747
I7
asS'req0_u11_1'
p2748
(lp2749
I7
asS'req0_u11_0'
p2750
(lp2751
I10
asS'req0_u11_3'
p2752
(lp2753
I8
asS'req0_u11_2'
p2754
(lp2755
I0
asS'req0_u7_3'
p2756
(lp2757
I8
asS'req0_u7_2'
p2758
(lp2759
I0
asS'req0_u7_1'
p2760
(lp2761
I7
asS'req0_u7_0'
p2762
(lp2763
I3
asS'req0_u10_0'
p2764
(lp2765
I3
asS'req0_u10_1'
p2766
(lp2767
I7
asS'req0_u10_2'
p2768
(lp2769
I0
asS'req0_u10_3'
p2770
(lp2771
I8
asS'req0_u8_0'
p2772
(lp2773
I3
asS'req0_u8_1'
p2774
(lp2775
I7
asS'req0_u8_2'
p2776
(lp2777
I0
asS'req0_u8_3'
p2778
(lp2779
I8
assg495
(dp2780
(g497
g498
tp2781
F0.13657270899132656
s(g500
g501
tp2782
F0.11615626792030628
s(g503
g504
tp2783
F0.2039224334026295
s(g506
g507
tp2784
F0.07412559183521958
s(g509
g510
tp2785
I-1
ssg512
I38
sg513
F5000.0
sg514
I42
sg515
F2421.090516666667
sg516
I2
sg517
F0.2512803822916667
sg518
I8
sg519
I38
ssS"[('req0_a1', 'req0_u3'), ('req0_u3', 'req0_u2'), ('req0_u2', 'req0_u1'), ('req0_u1', 'req0_u4_0'), ('req0_u4_0', 'req0_u5_0'), ('req0_u4_0', 'req0_u6_0'), ('req0_u6_0', 'req0_u7_0'), ('req0_u4_0', 'req0_u8_0'), ('req0_u8_0', 'req0_u9_0'), ('req0_u4_0', 'req0_u10_0'), ('req0_u5_0', 'req0_u11_0'), ('req0_u7_0', 'req0_u11_0'), ('req0_u9_0', 'req0_u11_0'), ('req0_u10_0', 'req0_u11_0'), ('req0_u11_0', 'req0_a2_0'), ('req0_u1', 'req0_u4_1'), ('req0_u4_1', 'req0_u5_1'), ('req0_u4_1', 'req0_u6_1'), ('req0_u6_1', 'req0_u7_1'), ('req0_u4_1', 'req0_u8_1'), ('req0_u8_1', 'req0_u9_1'), ('req0_u4_1', 'req0_u10_1'), ('req0_u5_1', 'req0_u11_1'), ('req0_u7_1', 'req0_u11_1'), ('req0_u9_1', 'req0_u11_1'), ('req0_u10_1', 'req0_u11_1'), ('req0_u11_1', 'req0_a2_1'), ('req0_u1', 'req0_u4_2'), ('req0_u4_2', 'req0_u5_2'), ('req0_u4_2', 'req0_u6_2'), ('req0_u6_2', 'req0_u7_2'), ('req0_u4_2', 'req0_u8_2'), ('req0_u8_2', 'req0_u9_2'), ('req0_u4_2', 'req0_u10_2'), ('req0_u5_2', 'req0_u11_2'), ('req0_u7_2', 'req0_u11_2'), ('req0_u9_2', 'req0_u11_2'), ('req0_u10_2', 'req0_u11_2'), ('req0_u11_2', 'req0_a2_2'), ('req0_u1', 'req0_u4_3'), ('req0_u4_3', 'req0_u5_3'), ('req0_u4_3', 'req0_u6_3'), ('req0_u6_3', 'req0_u7_3'), ('req0_u4_3', 'req0_u8_3'), ('req0_u8_3', 'req0_u9_3'), ('req0_u4_3', 'req0_u10_3'), ('req0_u5_3', 'req0_u11_3'), ('req0_u7_3', 'req0_u11_3'), ('req0_u9_3', 'req0_u11_3'), ('req0_u10_3', 'req0_u11_3'), ('req0_u11_3', 'req0_a2_3')]"
p2786
(dp2787
g3
(dp2788
S'CACHE'
p2789
I4
sS'LB'
p2790
I1
sS'FW'
p2791
I4
sS'WAPGW'
p2792
I4
sS'IDS'
p2793
I4
sS'PCTL'
p2794
I4
sS'IPS'
p2795
I4
sS'VOPT'
p2796
I4
sS'HHE'
p2797
I0
sS'AV'
p2798
I1
sS'WOPT'
p2799
I1
sS'PRX'
p2800
I0
sS'DPI'
p2801
I4
ssg18
F211932.0
sg19
I12
sg20
F0.07871357777777778
sg21
(dp2802
I0
F0.18234569000000003
sI1
F0.984375
sI2
F0.0
sI3
F0.272461625
sI4
F0.875
sI5
F0.0
sI6
F0.28125
sI7
F0.18234569000000003
sI8
F0.18234569
sI9
F0.0
sI10
F0.09375183000000001
sI11
F0.0
ssg23
F0.4246216017198351
sg24
I01
sg25
F29665.586200000005
sg26
F1500.0
sg27
F750.0
sg28
F12.5
sg29
g30
sg31
F1381.9296333333332
sg32
F2.1231080085991754
sg33
(dp2803
(I4
I7
tp2804
F1218.75
s(I5
I6
tp2805
F1218.75
s(I2
I8
tp2806
F1500.0
s(I5
I1
tp2807
F1500.0
s(I2
I5
tp2808
F1500.0
s(I1
I11
tp2809
F1218.75
s(I10
I3
tp2810
F1500.0
s(I3
I10
tp2811
F957.89
s(I6
I3
tp2812
F1218.7489999999998
s(I1
I5
tp2813
F1218.75
s(I11
I1
tp2814
F1500.0
s(I3
I6
tp2815
F1500.0
s(I4
I1
tp2816
F750.0
s(I10
I9
tp2817
F1500.0
s(I9
I7
tp2818
F1500.0
s(I6
I4
tp2819
F1500.0
s(I8
I2
tp2820
F1500.0
s(I8
I11
tp2821
F1500.0
s(I9
I3
tp2822
F1500.0
s(I1
I4
tp2823
F1218.75
s(I9
I10
tp2824
F1500.0
s(I3
I9
tp2825
F1500.0
s(I1
I0
tp2826
F1218.75
s(I6
I5
tp2827
F1500.0
s(I7
I9
tp2828
F1500.0
s(I0
I1
tp2829
F1500.0
s(I4
I6
tp2830
F1500.0
s(I11
I8
tp2831
F1218.75
s(I7
I4
tp2832
F1500.0
s(I5
I2
tp2833
F1500.0
ssg65
(dp2834
I0
F4088.2715500000004
sI1
F12.5
sI2
F5000.0
sI3
F582.0306999999999
sI4
F100.0
sI5
F800.0
sI6
F575.0
sI7
F4088.2715500000004
sI8
F4088.2715500000004
sI9
F800.0
sI10
F4531.24085
sI11
F5000.0
ssg67
F41457.888999999996
sg68
(dp2835
g2789
(lp2836
I0
aI7
aI8
aI10
asg2790
(lp2837
I1
asg2791
(lp2838
I0
aI7
aI8
aI10
asg2792
(lp2839
I0
aI3
aI7
aI8
asg2793
(lp2840
I0
aI3
aI7
aI8
asg2794
(lp2841
I0
aI3
aI7
aI8
asg2795
(lp2842
I0
aI7
aI8
aI10
asg2796
(lp2843
I0
aI3
aI7
aI8
asg2797
(lp2844
sg2798
(lp2845
I4
asg2799
(lp2846
I1
asg2800
(lp2847
sg2801
(lp2848
I0
aI6
aI7
aI8
assg83
(dp2849
(S'req0_u8_0'
p2850
S'req0_u9_0'
p2851
tp2852
(lp2853
(I3
I10
tp2854
as(S'req0_u6_1'
p2855
S'req0_u7_1'
p2856
tp2857
(lp2858
(I7
I7
tp2859
as(S'req0_u11_0'
p2860
S'req0_a2_0'
p2861
tp2862
(lp2863
(I10
I10
tp2864
as(S'req0_u5_0'
p2865
S'req0_u11_0'
p2866
tp2867
(lp2868
(I3
I10
tp2869
as(S'req0_u1'
p2870
S'req0_u4_1'
p2871
tp2872
(lp2873
(I1
I4
tp2874
a(I4
I7
tp2875
as(S'req0_u5_1'
p2876
S'req0_u11_1'
p2877
tp2878
(lp2879
(I7
I7
tp2880
as(S'req0_u5_2'
p2881
S'req0_u11_2'
p2882
tp2883
(lp2884
(I0
I0
tp2885
as(S'req0_u11_3'
p2886
S'req0_a2_3'
p2887
tp2888
(lp2889
(I8
I8
tp2890
as(S'req0_u4_2'
p2891
S'req0_u10_2'
p2892
tp2893
(lp2894
(I0
I0
tp2895
as(S'req0_u7_0'
p2896
S'req0_u11_0'
p2897
tp2898
(lp2899
(I10
I10
tp2900
as(S'req0_u3'
p2901
S'req0_u2'
p2902
tp2903
(lp2904
(I4
I1
tp2905
as(S'req0_u4_1'
p2906
S'req0_u8_1'
p2907
tp2908
(lp2909
(I7
I7
tp2910
as(S'req0_u10_3'
p2911
S'req0_u11_3'
p2912
tp2913
(lp2914
(I8
I8
tp2915
as(S'req0_u4_2'
p2916
S'req0_u5_2'
p2917
tp2918
(lp2919
(I0
I0
tp2920
as(S'req0_u7_1'
p2921
S'req0_u11_1'
p2922
tp2923
(lp2924
(I7
I7
tp2925
as(S'req0_u4_0'
p2926
S'req0_u8_0'
p2927
tp2928
(lp2929
(I6
I3
tp2930
as(S'req0_u4_1'
p2931
S'req0_u5_1'
p2932
tp2933
(lp2934
(I7
I7
tp2935
as(g2870
S'req0_u4_2'
p2936
tp2937
(lp2938
(I1
I0
tp2939
as(S'req0_u4_1'
p2940
S'req0_u10_1'
p2941
tp2942
(lp2943
(I7
I7
tp2944
as(S'req0_u4_3'
p2945
S'req0_u6_3'
p2946
tp2947
(lp2948
(I8
I8
tp2949
as(S'req0_u4_0'
p2950
S'req0_u5_0'
p2951
tp2952
(lp2953
(I6
I3
tp2954
as(S'req0_u4_0'
p2955
S'req0_u6_0'
p2956
tp2957
(lp2958
(I6
I3
tp2959
as(S'req0_u6_3'
p2960
S'req0_u7_3'
p2961
tp2962
(lp2963
(I8
I8
tp2964
as(S'req0_u4_0'
p2965
S'req0_u10_0'
p2966
tp2967
(lp2968
(I6
I3
tp2969
as(S'req0_u10_2'
p2970
S'req0_u11_2'
p2971
tp2972
(lp2973
(I0
I0
tp2974
as(S'req0_u4_3'
p2975
S'req0_u5_3'
p2976
tp2977
(lp2978
(I8
I8
tp2979
as(S'req0_u4_1'
p2980
S'req0_u6_1'
p2981
tp2982
(lp2983
(I7
I7
tp2984
as(S'req0_u6_2'
p2985
S'req0_u7_2'
p2986
tp2987
(lp2988
(I0
I0
tp2989
as(S'req0_u4_3'
p2990
S'req0_u8_3'
p2991
tp2992
(lp2993
(I8
I8
tp2994
as(S'req0_u10_1'
p2995
S'req0_u11_1'
p2996
tp2997
(lp2998
(I7
I7
tp2999
as(S'req0_u4_2'
p3000
S'req0_u6_2'
p3001
tp3002
(lp3003
(I0
I0
tp3004
as(S'req0_u10_0'
p3005
S'req0_u11_0'
p3006
tp3007
(lp3008
(I3
I10
tp3009
as(S'req0_u4_3'
p3010
S'req0_u10_3'
p3011
tp3012
(lp3013
(I8
I8
tp3014
as(g2870
S'req0_u4_3'
p3015
tp3016
(lp3017
(I1
I11
tp3018
a(I11
I8
tp3019
as(S'req0_u9_2'
p3020
S'req0_u11_2'
p3021
tp3022
(lp3023
(I0
I0
tp3024
as(S'req0_u9_3'
p3025
S'req0_u11_3'
p3026
tp3027
(lp3028
(I8
I8
tp3029
as(S'req0_a1'
p3030
g2901
tp3031
(lp3032
(I4
I4
tp3033
as(S'req0_u7_3'
p3034
S'req0_u11_3'
p3035
tp3036
(lp3037
(I8
I8
tp3038
as(S'req0_u8_2'
p3039
S'req0_u9_2'
p3040
tp3041
(lp3042
(I0
I0
tp3043
as(S'req0_u8_3'
p3044
S'req0_u9_3'
p3045
tp3046
(lp3047
(I8
I8
tp3048
as(S'req0_u4_2'
p3049
S'req0_u8_2'
p3050
tp3051
(lp3052
(I0
I0
tp3053
as(g2902
g2870
tp3054
(lp3055
(I1
I1
tp3056
as(S'req0_u9_0'
p3057
S'req0_u11_0'
p3058
tp3059
(lp3060
(I10
I10
tp3061
as(S'req0_u11_2'
p3062
S'req0_a2_2'
p3063
tp3064
(lp3065
(I0
I0
tp3066
as(g2870
S'req0_u4_0'
p3067
tp3068
(lp3069
(I1
I5
tp3070
a(I5
I6
tp3071
as(S'req0_u9_1'
p3072
S'req0_u11_1'
p3073
tp3074
(lp3075
(I7
I7
tp3076
as(S'req0_u8_1'
p3077
S'req0_u9_1'
p3078
tp3079
(lp3080
(I7
I7
tp3081
as(S'req0_u7_2'
p3082
S'req0_u11_2'
p3083
tp3084
(lp3085
(I0
I0
tp3086
as(S'req0_u6_0'
p3087
S'req0_u7_0'
p3088
tp3089
(lp3090
(I3
I10
tp3091
as(S'req0_u11_1'
p3092
S'req0_a2_1'
p3093
tp3094
(lp3095
(I7
I7
tp3096
as(S'req0_u5_3'
p3097
S'req0_u11_3'
p3098
tp3099
(lp3100
(I8
I8
tp3101
assg368
(dp3102
(I4
I7
tp3103
F0.1875
s(I5
I6
tp3104
F0.1875
s(I2
I8
tp3105
F0.0
s(I5
I1
tp3106
F0.0
s(I2
I5
tp3107
F0.0
s(I1
I11
tp3108
F0.1875
s(I10
I3
tp3109
F0.0
s(I3
I10
tp3110
F0.36140666666666665
s(I6
I3
tp3111
F0.18750066666666665
s(I1
I5
tp3112
F0.1875
s(I11
I1
tp3113
F0.0
s(I3
I6
tp3114
F0.0
s(I4
I1
tp3115
F0.5
s(I10
I9
tp3116
F0.0
s(I9
I7
tp3117
F0.0
s(I6
I4
tp3118
F0.0
s(I8
I2
tp3119
F0.0
s(I8
I11
tp3120
F0.0
s(I9
I3
tp3121
F0.0
s(I1
I4
tp3122
F0.1875
s(I9
I10
tp3123
F0.0
s(I3
I9
tp3124
F0.0
s(I1
I0
tp3125
F0.1875
s(I6
I5
tp3126
F0.0
s(I7
I9
tp3127
F0.0
s(I0
I1
tp3128
F0.0
s(I4
I6
tp3129
F0.0
s(I11
I8
tp3130
F0.1875
s(I7
I4
tp3131
F0.0
s(I5
I2
tp3132
F0.0
ssg400
F41457.888999999996
sg401
(dp3133
S'req0_u9_1'
p3134
(lp3135
I7
asS'req0_u9_0'
p3136
(lp3137
I10
asS'req0_a2_0'
p3138
(lp3139
I10
asS'req0_a2_1'
p3140
(lp3141
I7
asS'req0_u4_0'
p3142
(lp3143
I6
asS'req0_u4_1'
p3144
(lp3145
I7
asS'req0_u4_2'
p3146
(lp3147
I0
asS'req0_u4_3'
p3148
(lp3149
I8
asS'req0_u5_1'
p3150
(lp3151
I7
asS'req0_u5_0'
p3152
(lp3153
I3
asS'req0_u5_3'
p3154
(lp3155
I8
asS'req0_u5_2'
p3156
(lp3157
I0
asS'req0_a2_3'
p3158
(lp3159
I8
asS'req0_u9_3'
p3160
(lp3161
I8
asS'req0_a2_2'
p3162
(lp3163
I0
asg449
(lp3164
I4
asS'req0_u9_2'
p3165
(lp3166
I0
asg1354
(lp3167
I4
asg925
(lp3168
I1
asg453
(lp3169
I1
asS'req0_u6_2'
p3170
(lp3171
I0
asS'req0_u6_3'
p3172
(lp3173
I8
asS'req0_u6_0'
p3174
(lp3175
I3
asS'req0_u6_1'
p3176
(lp3177
I7
asS'req0_u11_1'
p3178
(lp3179
I7
asS'req0_u11_0'
p3180
(lp3181
I10
asS'req0_u11_3'
p3182
(lp3183
I8
asS'req0_u11_2'
p3184
(lp3185
I0
asS'req0_u7_3'
p3186
(lp3187
I8
asS'req0_u7_2'
p3188
(lp3189
I0
asS'req0_u7_1'
p3190
(lp3191
I7
asS'req0_u7_0'
p3192
(lp3193
I10
asS'req0_u10_0'
p3194
(lp3195
I3
asS'req0_u10_1'
p3196
(lp3197
I7
asS'req0_u10_2'
p3198
(lp3199
I0
asS'req0_u10_3'
p3200
(lp3201
I8
asS'req0_u8_0'
p3202
(lp3203
I3
asS'req0_u8_1'
p3204
(lp3205
I7
asS'req0_u8_2'
p3206
(lp3207
I0
asS'req0_u8_3'
p3208
(lp3209
I8
assg495
(dp3210
(g497
g498
tp3211
F0.13657270899133034
s(g500
g501
tp3212
F0.11615626792049125
s(g503
g504
tp3213
F0.20392243340262978
s(g506
g507
tp3214
F0.07412559183534254
s(g509
g510
tp3215
I-1
ssg512
I35
sg513
F5000.0
sg514
I42
sg515
F2472.1321833333336
sg516
I5
sg517
F0.25448962708333334
sg518
I8
sg519
I35
ssS"[('req0_a1', 'req0_u2'), ('req0_u2', 'req0_u3'), ('req0_u3', 'req0_u1'), ('req0_u1', 'req0_u4_0'), ('req0_u4_0', 'req0_u5_0'), ('req0_u4_0', 'req0_u6_0'), ('req0_u6_0', 'req0_u7_0'), ('req0_u4_0', 'req0_u8_0'), ('req0_u8_0', 'req0_u9_0'), ('req0_u4_0', 'req0_u10_0'), ('req0_u5_0', 'req0_u11_0'), ('req0_u7_0', 'req0_u11_0'), ('req0_u9_0', 'req0_u11_0'), ('req0_u10_0', 'req0_u11_0'), ('req0_u11_0', 'req0_a2_0'), ('req0_u1', 'req0_u4_1'), ('req0_u4_1', 'req0_u5_1'), ('req0_u4_1', 'req0_u6_1'), ('req0_u6_1', 'req0_u7_1'), ('req0_u4_1', 'req0_u8_1'), ('req0_u8_1', 'req0_u9_1'), ('req0_u4_1', 'req0_u10_1'), ('req0_u5_1', 'req0_u11_1'), ('req0_u7_1', 'req0_u11_1'), ('req0_u9_1', 'req0_u11_1'), ('req0_u10_1', 'req0_u11_1'), ('req0_u11_1', 'req0_a2_1'), ('req0_u1', 'req0_u4_2'), ('req0_u4_2', 'req0_u5_2'), ('req0_u4_2', 'req0_u6_2'), ('req0_u6_2', 'req0_u7_2'), ('req0_u4_2', 'req0_u8_2'), ('req0_u8_2', 'req0_u9_2'), ('req0_u4_2', 'req0_u10_2'), ('req0_u5_2', 'req0_u11_2'), ('req0_u7_2', 'req0_u11_2'), ('req0_u9_2', 'req0_u11_2'), ('req0_u10_2', 'req0_u11_2'), ('req0_u11_2', 'req0_a2_2'), ('req0_u1', 'req0_u4_3'), ('req0_u4_3', 'req0_u5_3'), ('req0_u4_3', 'req0_u6_3'), ('req0_u6_3', 'req0_u7_3'), ('req0_u4_3', 'req0_u8_3'), ('req0_u8_3', 'req0_u9_3'), ('req0_u4_3', 'req0_u10_3'), ('req0_u5_3', 'req0_u11_3'), ('req0_u7_3', 'req0_u11_3'), ('req0_u9_3', 'req0_u11_3'), ('req0_u10_3', 'req0_u11_3'), ('req0_u11_3', 'req0_a2_3')]"
p3216
(dp3217
g3
(dp3218
S'CACHE'
p3219
I4
sS'LB'
p3220
I1
sS'FW'
p3221
I4
sS'WAPGW'
p3222
I4
sS'IDS'
p3223
I4
sS'PCTL'
p3224
I4
sS'IPS'
p3225
I4
sS'VOPT'
p3226
I4
sS'HHE'
p3227
I0
sS'AV'
p3228
I1
sS'WOPT'
p3229
I1
sS'PRX'
p3230
I0
sS'DPI'
p3231
I4
ssg18
F180534.0
sg19
I12
sg20
F0.07839415555555557
sg21
(dp3232
I0
F0.18234569000000003
sI1
F0.043945625
sI2
F0.0
sI3
F0.0
sI4
F0.28125
sI5
F0.0
sI6
F0.0
sI7
F0.57984569
sI8
F0.12862683000000003
sI9
F0.0
sI10
F0.18234569000000003
sI11
F0.0016875599999999998
ssg23
F0.4691877524616507
sg24
I01
sg25
F29165.5862
sg26
F1500.0
sg27
F500.0
sg28
F575.0
sg29
g30
sg31
F1382.4087666666667
sg32
F2.3459387623082533
sg33
(dp3233
(I4
I7
tp3234
F500.0
s(I5
I6
tp3235
F1500.0
s(I2
I8
tp3236
F1500.0
s(I5
I1
tp3237
F1500.0
s(I2
I5
tp3238
F1500.0
s(I1
I11
tp3239
F1218.7489999999998
s(I10
I3
tp3240
F1500.0
s(I3
I10
tp3241
F1500.0
s(I6
I3
tp3242
F1500.0
s(I1
I5
tp3243
F1500.0
s(I11
I1
tp3244
F1500.0
s(I3
I6
tp3245
F1500.0
s(I4
I1
tp3246
F937.4989999999998
s(I10
I9
tp3247
F1500.0
s(I9
I7
tp3248
F1500.0
s(I6
I4
tp3249
F1500.0
s(I8
I2
tp3250
F1500.0
s(I8
I11
tp3251
F1500.0
s(I9
I3
tp3252
F1500.0
s(I1
I4
tp3253
F1500.0
s(I9
I10
tp3254
F1218.75
s(I3
I9
tp3255
F1500.0
s(I1
I0
tp3256
F1218.75
s(I6
I5
tp3257
F1500.0
s(I7
I9
tp3258
F1218.75
s(I0
I1
tp3259
F1500.0
s(I4
I6
tp3260
F1500.0
s(I11
I8
tp3261
F1222.2649999999999
s(I7
I4
tp3262
F937.5
s(I5
I2
tp3263
F1500.0
ssg65
(dp3264
I0
F4088.2715500000004
sI1
F764.8435
sI2
F5000.0
sI3
F800.0
sI4
F575.0
sI5
F800.0
sI6
F800.0
sI7
F2100.7715500000004
sI8
F4356.86585
sI9
F800.0
sI10
F4088.2715500000004
sI11
F4991.5622
ssg67
F41472.263
sg68
(dp3265
g3219
(lp3266
I0
aI7
aI8
aI10
asg3220
(lp3267
I7
asg3221
(lp3268
I0
aI7
aI8
aI10
asg3222
(lp3269
I0
aI1
aI7
aI10
asg3223
(lp3270
I0
aI7
aI10
aI11
asg3224
(lp3271
I0
aI7
aI8
aI10
asg3225
(lp3272
I0
aI7
aI8
aI10
asg3226
(lp3273
I0
aI7
aI8
aI10
asg3227
(lp3274
sg3228
(lp3275
I7
asg3229
(lp3276
I7
asg3230
(lp3277
sg3231
(lp3278
I0
aI4
aI7
aI10
assg83
(dp3279
(S'req0_u8_0'
p3280
S'req0_u9_0'
p3281
tp3282
(lp3283
(I10
I10
tp3284
as(S'req0_u6_1'
p3285
S'req0_u7_1'
p3286
tp3287
(lp3288
(I7
I7
tp3289
as(S'req0_u11_0'
p3290
S'req0_a2_0'
p3291
tp3292
(lp3293
(I10
I10
tp3294
as(S'req0_u5_0'
p3295
S'req0_u11_0'
p3296
tp3297
(lp3298
(I10
I10
tp3299
as(S'req0_u1'
p3300
S'req0_u4_1'
p3301
tp3302
(lp3303
(I7
I7
tp3304
as(S'req0_u5_1'
p3305
S'req0_u11_1'
p3306
tp3307
(lp3308
(I7
I7
tp3309
as(S'req0_u5_2'
p3310
S'req0_u11_2'
p3311
tp3312
(lp3313
(I0
I0
tp3314
as(S'req0_u11_3'
p3315
S'req0_a2_3'
p3316
tp3317
(lp3318
(I8
I8
tp3319
as(S'req0_u4_2'
p3320
S'req0_u10_2'
p3321
tp3322
(lp3323
(I0
I0
tp3324
as(S'req0_u4_2'
p3325
S'req0_u6_2'
p3326
tp3327
(lp3328
(I0
I0
tp3329
as(S'req0_u2'
p3330
S'req0_u3'
p3331
tp3332
(lp3333
(I7
I7
tp3334
as(S'req0_u7_0'
p3335
S'req0_u11_0'
p3336
tp3337
(lp3338
(I10
I10
tp3339
as(S'req0_u4_1'
p3340
S'req0_u8_1'
p3341
tp3342
(lp3343
(I7
I7
tp3344
as(S'req0_u10_3'
p3345
S'req0_u11_3'
p3346
tp3347
(lp3348
(I11
I8
tp3349
as(S'req0_u4_2'
p3350
S'req0_u5_2'
p3351
tp3352
(lp3353
(I0
I0
tp3354
as(S'req0_u7_1'
p3355
S'req0_u11_1'
p3356
tp3357
(lp3358
(I7
I7
tp3359
as(S'req0_u4_0'
p3360
S'req0_u8_0'
p3361
tp3362
(lp3363
(I10
I10
tp3364
as(S'req0_u4_1'
p3365
S'req0_u5_1'
p3366
tp3367
(lp3368
(I7
I7
tp3369
as(g3300
S'req0_u4_2'
p3370
tp3371
(lp3372
(I1
I0
tp3373
a(I4
I1
tp3374
a(I7
I4
tp3375
as(S'req0_u4_1'
p3376
S'req0_u10_1'
p3377
tp3378
(lp3379
(I7
I7
tp3380
as(S'req0_u4_3'
p3381
S'req0_u6_3'
p3382
tp3383
(lp3384
(I1
I11
tp3385
a(I4
I1
tp3386
a(I11
I8
tp3387
as(S'req0_u4_0'
p3388
S'req0_u5_0'
p3389
tp3390
(lp3391
(I10
I10
tp3392
as(S'req0_u4_0'
p3393
S'req0_u6_0'
p3394
tp3395
(lp3396
(I10
I10
tp3397
as(S'req0_u6_3'
p3398
S'req0_u7_3'
p3399
tp3400
(lp3401
(I8
I8
tp3402
as(S'req0_u4_0'
p3403
S'req0_u10_0'
p3404
tp3405
(lp3406
(I10
I10
tp3407
as(S'req0_u10_2'
p3408
S'req0_u11_2'
p3409
tp3410
(lp3411
(I0
I0
tp3412
as(S'req0_u4_3'
p3413
S'req0_u5_3'
p3414
tp3415
(lp3416
(I4
I1
tp3417
as(S'req0_u4_1'
p3418
S'req0_u6_1'
p3419
tp3420
(lp3421
(I7
I7
tp3422
as(S'req0_u6_2'
p3423
S'req0_u7_2'
p3424
tp3425
(lp3426
(I0
I0
tp3427
as(S'req0_u4_3'
p3428
S'req0_u8_3'
p3429
tp3430
(lp3431
(I1
I11
tp3432
a(I4
I1
tp3433
a(I11
I8
tp3434
as(S'req0_u10_1'
p3435
S'req0_u11_1'
p3436
tp3437
(lp3438
(I7
I7
tp3439
as(g3331
g3300
tp3440
(lp3441
(I7
I7
tp3442
as(S'req0_u10_0'
p3443
S'req0_u11_0'
p3444
tp3445
(lp3446
(I10
I10
tp3447
as(S'req0_u4_3'
p3448
S'req0_u10_3'
p3449
tp3450
(lp3451
(I1
I11
tp3452
a(I4
I1
tp3453
as(g3300
S'req0_u4_3'
p3454
tp3455
(lp3456
(I7
I4
tp3457
as(S'req0_u9_2'
p3458
S'req0_u11_2'
p3459
tp3460
(lp3461
(I0
I0
tp3462
as(S'req0_u9_3'
p3463
S'req0_u11_3'
p3464
tp3465
(lp3466
(I8
I8
tp3467
as(S'req0_u7_3'
p3468
S'req0_u11_3'
p3469
tp3470
(lp3471
(I8
I8
tp3472
as(S'req0_u8_2'
p3473
S'req0_u9_2'
p3474
tp3475
(lp3476
(I0
I0
tp3477
as(S'req0_u8_3'
p3478
S'req0_u9_3'
p3479
tp3480
(lp3481
(I8
I8
tp3482
as(S'req0_u4_2'
p3483
S'req0_u8_2'
p3484
tp3485
(lp3486
(I0
I0
tp3487
as(S'req0_u9_0'
p3488
S'req0_u11_0'
p3489
tp3490
(lp3491
(I10
I10
tp3492
as(S'req0_u11_2'
p3493
S'req0_a2_2'
p3494
tp3495
(lp3496
(I0
I0
tp3497
as(g3300
S'req0_u4_0'
p3498
tp3499
(lp3500
(I7
I9
tp3501
a(I9
I10
tp3502
as(S'req0_u9_1'
p3503
S'req0_u11_1'
p3504
tp3505
(lp3506
(I7
I7
tp3507
as(S'req0_a1'
p3508
g3330
tp3509
(lp3510
(I4
I7
tp3511
as(S'req0_u8_1'
p3512
S'req0_u9_1'
p3513
tp3514
(lp3515
(I7
I7
tp3516
as(S'req0_u7_2'
p3517
S'req0_u11_2'
p3518
tp3519
(lp3520
(I0
I0
tp3521
as(S'req0_u6_0'
p3522
S'req0_u7_0'
p3523
tp3524
(lp3525
(I10
I10
tp3526
as(S'req0_u11_1'
p3527
S'req0_a2_1'
p3528
tp3529
(lp3530
(I7
I7
tp3531
as(S'req0_u5_3'
p3532
S'req0_u11_3'
p3533
tp3534
(lp3535
(I1
I11
tp3536
a(I11
I8
tp3537
assg368
(dp3538
(I4
I7
tp3539
F0.6666666666666666
s(I5
I6
tp3540
F0.0
s(I2
I8
tp3541
F0.0
s(I5
I1
tp3542
F0.0
s(I2
I5
tp3543
F0.0
s(I1
I11
tp3544
F0.18750066666666665
s(I10
I3
tp3545
F0.0
s(I3
I10
tp3546
F0.0
s(I6
I3
tp3547
F0.0
s(I1
I5
tp3548
F0.0
s(I11
I1
tp3549
F0.0
s(I3
I6
tp3550
F0.0
s(I4
I1
tp3551
F0.37500066666666665
s(I10
I9
tp3552
F0.0
s(I9
I7
tp3553
F0.0
s(I6
I4
tp3554
F0.0
s(I8
I2
tp3555
F0.0
s(I8
I11
tp3556
F0.0
s(I9
I3
tp3557
F0.0
s(I1
I4
tp3558
F0.0
s(I9
I10
tp3559
F0.1875
s(I3
I9
tp3560
F0.0
s(I1
I0
tp3561
F0.1875
s(I6
I5
tp3562
F0.0
s(I7
I9
tp3563
F0.1875
s(I0
I1
tp3564
F0.0
s(I4
I6
tp3565
F0.0
s(I11
I8
tp3566
F0.18515666666666666
s(I7
I4
tp3567
F0.375
s(I5
I2
tp3568
F0.0
ssg400
F41472.263
sg401
(dp3569
S'req0_u9_1'
p3570
(lp3571
I7
asS'req0_u9_0'
p3572
(lp3573
I10
asS'req0_a2_0'
p3574
(lp3575
I10
asS'req0_a2_1'
p3576
(lp3577
I7
asS'req0_u4_0'
p3578
(lp3579
I10
asS'req0_u4_1'
p3580
(lp3581
I7
asS'req0_u4_2'
p3582
(lp3583
I0
asS'req0_u4_3'
p3584
(lp3585
I4
asS'req0_u5_1'
p3586
(lp3587
I7
asS'req0_u5_0'
p3588
(lp3589
I10
asS'req0_u5_3'
p3590
(lp3591
I1
asS'req0_u5_2'
p3592
(lp3593
I0
asS'req0_a2_3'
p3594
(lp3595
I8
asS'req0_u9_3'
p3596
(lp3597
I8
asS'req0_a2_2'
p3598
(lp3599
I0
asg449
(lp3600
I4
asS'req0_u9_2'
p3601
(lp3602
I0
asg1354
(lp3603
I7
asg925
(lp3604
I7
asg453
(lp3605
I7
asS'req0_u6_2'
p3606
(lp3607
I0
asS'req0_u6_3'
p3608
(lp3609
I8
asS'req0_u6_0'
p3610
(lp3611
I10
asS'req0_u6_1'
p3612
(lp3613
I7
asS'req0_u11_1'
p3614
(lp3615
I7
asS'req0_u11_0'
p3616
(lp3617
I10
asS'req0_u11_3'
p3618
(lp3619
I8
asS'req0_u11_2'
p3620
(lp3621
I0
asS'req0_u7_3'
p3622
(lp3623
I8
asS'req0_u7_2'
p3624
(lp3625
I0
asS'req0_u7_1'
p3626
(lp3627
I7
asS'req0_u7_0'
p3628
(lp3629
I10
asS'req0_u10_0'
p3630
(lp3631
I10
asS'req0_u10_1'
p3632
(lp3633
I7
asS'req0_u10_2'
p3634
(lp3635
I0
asS'req0_u10_3'
p3636
(lp3637
I11
asS'req0_u8_0'
p3638
(lp3639
I10
asS'req0_u8_1'
p3640
(lp3641
I7
asS'req0_u8_2'
p3642
(lp3643
I0
asS'req0_u8_3'
p3644
(lp3645
I8
assg495
(dp3646
(g497
g498
tp3647
F0.05296974925892393
s(g500
g501
tp3648
F0.22209576643833912
s(g503
g504
tp3649
F0.13135408452661
s(g506
g507
tp3650
F0.18006509035319038
s(g509
g510
tp3651
I-1
ssg512
I35
sg513
F5000.0
sg514
I42
sg515
F2430.4655166666666
sg516
I3
sg517
F0.11667059041666666
sg518
I7
sg519
I35
ssS"[('req0_a1', 'req0_u1'), ('req0_u1', 'req0_u2_0'), ('req0_u1', 'req0_u2_1'), ('req0_u1', 'req0_u2_2'), ('req0_u1', 'req0_u2_3'), ('req0_u2_0', 'req0_u3_0'), ('req0_u2_1', 'req0_u3_1'), ('req0_u2_2', 'req0_u3_2'), ('req0_u2_3', 'req0_u3_3'), ('req0_u3_0', 'req0_u4_0'), ('req0_u4_0', 'req0_u5_0'), ('req0_u4_0', 'req0_u6_0'), ('req0_u6_0', 'req0_u7_0'), ('req0_u4_0', 'req0_u8_0'), ('req0_u8_0', 'req0_u9_0'), ('req0_u4_0', 'req0_u10_0'), ('req0_u5_0', 'req0_u11_0'), ('req0_u7_0', 'req0_u11_0'), ('req0_u9_0', 'req0_u11_0'), ('req0_u10_0', 'req0_u11_0'), ('req0_u11_0', 'req0_a2_0'), ('req0_u3_1', 'req0_u4_1'), ('req0_u4_1', 'req0_u5_1'), ('req0_u4_1', 'req0_u6_1'), ('req0_u6_1', 'req0_u7_1'), ('req0_u4_1', 'req0_u8_1'), ('req0_u8_1', 'req0_u9_1'), ('req0_u4_1', 'req0_u10_1'), ('req0_u5_1', 'req0_u11_1'), ('req0_u7_1', 'req0_u11_1'), ('req0_u9_1', 'req0_u11_1'), ('req0_u10_1', 'req0_u11_1'), ('req0_u11_1', 'req0_a2_1'), ('req0_u3_2', 'req0_u4_2'), ('req0_u4_2', 'req0_u5_2'), ('req0_u4_2', 'req0_u6_2'), ('req0_u6_2', 'req0_u7_2'), ('req0_u4_2', 'req0_u8_2'), ('req0_u8_2', 'req0_u9_2'), ('req0_u4_2', 'req0_u10_2'), ('req0_u5_2', 'req0_u11_2'), ('req0_u7_2', 'req0_u11_2'), ('req0_u9_2', 'req0_u11_2'), ('req0_u10_2', 'req0_u11_2'), ('req0_u11_2', 'req0_a2_2'), ('req0_u3_3', 'req0_u4_3'), ('req0_u4_3', 'req0_u5_3'), ('req0_u4_3', 'req0_u6_3'), ('req0_u6_3', 'req0_u7_3'), ('req0_u4_3', 'req0_u8_3'), ('req0_u8_3', 'req0_u9_3'), ('req0_u4_3', 'req0_u10_3'), ('req0_u5_3', 'req0_u11_3'), ('req0_u7_3', 'req0_u11_3'), ('req0_u9_3', 'req0_u11_3'), ('req0_u10_3', 'req0_u11_3'), ('req0_u11_3', 'req0_a2_3')]"
p3652
(dp3653
g3
(dp3654
S'CACHE'
p3655
I4
sS'LB'
p3656
I1
sS'FW'
p3657
I4
sS'WAPGW'
p3658
I4
sS'IDS'
p3659
I4
sS'PCTL'
p3660
I4
sS'IPS'
p3661
I4
sS'VOPT'
p3662
I4
sS'HHE'
p3663
I0
sS'AV'
p3664
I4
sS'WOPT'
p3665
I4
sS'PRX'
p3666
I0
sS'DPI'
p3667
I4
ssg18
F175461.0
sg19
I12
sg20
F0.0646528
sg21
(dp3668
I0
F0.2648456900000001
sI1
F0.1875
sI2
F0.0
sI3
F0.75703125
sI4
F0.375
sI5
F0.0
sI6
F0.1875
sI7
F0.2648456900000001
sI8
F0.23484569000000002
sI9
F0.0
sI10
F0.11372069000000001
sI11
F0.0
ssg23
F0.29575414007511525
sg24
I01
sg25
F29203.0862
sg26
F1500.0
sg27
F965.6239999999999
sg28
F194.375
sg29
g30
sg31
F1403.0207999999998
sg32
F1.4787707003755761
sg33
(dp3669
(I4
I7
tp3670
F1250.0
s(I5
I6
tp3671
F1500.0
s(I2
I8
tp3672
F1500.0
s(I5
I1
tp3673
F1500.0
s(I2
I5
tp3674
F1500.0
s(I1
I11
tp3675
F1125.0
s(I10
I3
tp3676
F1500.0
s(I3
I10
tp3677
F965.6239999999999
s(I6
I3
tp3678
F1125.0
s(I1
I5
tp3679
F1500.0
s(I11
I1
tp3680
F1500.0
s(I3
I6
tp3681
F1500.0
s(I4
I1
tp3682
F1000.0
s(I10
I9
tp3683
F1500.0
s(I9
I7
tp3684
F1500.0
s(I6
I4
tp3685
F1500.0
s(I8
I2
tp3686
F1500.0
s(I8
I11
tp3687
F1500.0
s(I9
I3
tp3688
F1500.0
s(I1
I4
tp3689
F1500.0
s(I9
I10
tp3690
F1500.0
s(I3
I9
tp3691
F1500.0
s(I1
I0
tp3692
F1250.0
s(I6
I5
tp3693
F1500.0
s(I7
I9
tp3694
F1500.0
s(I0
I1
tp3695
F1500.0
s(I4
I6
tp3696
F1250.0
s(I11
I8
tp3697
F1125.0
s(I7
I4
tp3698
F1500.0
s(I5
I2
tp3699
F1500.0
ssg65
(dp3700
I0
F3675.77155
sI1
F650.0
sI2
F5000.0
sI3
F194.375
sI4
F500.0
sI5
F800.0
sI6
F650.0
sI7
F3675.77155
sI8
F3825.7715500000004
sI9
F800.0
sI10
F4431.39655
sI11
F5000.0
ssg67
F42090.623999999996
sg68
(dp3701
g3655
(lp3702
I0
aI7
aI8
aI10
asg3656
(lp3703
I4
asg3657
(lp3704
I0
aI7
aI8
aI10
asg3658
(lp3705
I0
aI7
aI8
aI10
asg3659
(lp3706
I0
aI7
aI8
aI10
asg3660
(lp3707
I0
aI7
aI8
aI10
asg3661
(lp3708
I0
aI7
aI8
aI10
asg3662
(lp3709
I0
aI3
aI7
aI8
asg3663
(lp3710
sg3664
(lp3711
I0
aI3
aI7
aI8
asg3665
(lp3712
I0
aI1
aI6
aI7
asg3666
(lp3713
sg3667
(lp3714
I0
aI3
aI7
aI8
assg83
(dp3715
(S'req0_u1'
p3716
S'req0_u2_1'
p3717
tp3718
(lp3719
(I4
I7
tp3720
as(S'req0_u3_0'
p3721
S'req0_u4_0'
p3722
tp3723
(lp3724
(I3
I3
tp3725
as(S'req0_u6_1'
p3726
S'req0_u7_1'
p3727
tp3728
(lp3729
(I7
I7
tp3730
as(S'req0_u11_0'
p3731
S'req0_a2_0'
p3732
tp3733
(lp3734
(I10
I10
tp3735
as(S'req0_u5_0'
p3736
S'req0_u11_0'
p3737
tp3738
(lp3739
(I10
I10
tp3740
as(S'req0_u3_1'
p3741
S'req0_u4_1'
p3742
tp3743
(lp3744
(I7
I7
tp3745
as(S'req0_u11_2'
p3746
S'req0_a2_2'
p3747
tp3748
(lp3749
(I0
I0
tp3750
as(S'req0_u4_3'
p3751
S'req0_u5_3'
p3752
tp3753
(lp3754
(I8
I8
tp3755
as(S'req0_u5_1'
p3756
S'req0_u11_1'
p3757
tp3758
(lp3759
(I7
I7
tp3760
as(S'req0_u3_3'
p3761
S'req0_u4_3'
p3762
tp3763
(lp3764
(I8
I8
tp3765
as(S'req0_u3_2'
p3766
S'req0_u4_2'
p3767
tp3768
(lp3769
(I0
I0
tp3770
as(S'req0_a1'
p3771
g3716
tp3772
(lp3773
(I4
I4
tp3774
as(g3716
S'req0_u2_2'
p3775
tp3776
(lp3777
(I1
I0
tp3778
a(I4
I1
tp3779
as(S'req0_u7_0'
p3780
S'req0_u11_0'
p3781
tp3782
(lp3783
(I10
I10
tp3784
as(S'req0_u4_1'
p3785
S'req0_u8_1'
p3786
tp3787
(lp3788
(I7
I7
tp3789
as(S'req0_u2_1'
p3790
S'req0_u3_1'
p3791
tp3792
(lp3793
(I7
I7
tp3794
as(S'req0_u4_2'
p3795
S'req0_u5_2'
p3796
tp3797
(lp3798
(I0
I0
tp3799
as(S'req0_u7_1'
p3800
S'req0_u11_1'
p3801
tp3802
(lp3803
(I7
I7
tp3804
as(S'req0_u4_0'
p3805
S'req0_u8_0'
p3806
tp3807
(lp3808
(I3
I3
tp3809
as(S'req0_u4_1'
p3810
S'req0_u5_1'
p3811
tp3812
(lp3813
(I7
I7
tp3814
as(S'req0_u4_1'
p3815
S'req0_u10_1'
p3816
tp3817
(lp3818
(I7
I7
tp3819
as(S'req0_u4_3'
p3820
S'req0_u6_3'
p3821
tp3822
(lp3823
(I8
I8
tp3824
as(S'req0_u4_0'
p3825
S'req0_u5_0'
p3826
tp3827
(lp3828
(I3
I10
tp3829
as(S'req0_u4_0'
p3830
S'req0_u6_0'
p3831
tp3832
(lp3833
(I3
I10
tp3834
as(g3716
S'req0_u2_3'
p3835
tp3836
(lp3837
(I4
I1
tp3838
as(S'req0_u4_0'
p3839
S'req0_u10_0'
p3840
tp3841
(lp3842
(I3
I10
tp3843
as(S'req0_u10_2'
p3844
S'req0_u11_2'
p3845
tp3846
(lp3847
(I0
I0
tp3848
as(S'req0_u11_3'
p3849
S'req0_a2_3'
p3850
tp3851
(lp3852
(I8
I8
tp3853
as(S'req0_u4_1'
p3854
S'req0_u6_1'
p3855
tp3856
(lp3857
(I7
I7
tp3858
as(S'req0_u6_2'
p3859
S'req0_u7_2'
p3860
tp3861
(lp3862
(I0
I0
tp3863
as(S'req0_u4_3'
p3864
S'req0_u8_3'
p3865
tp3866
(lp3867
(I8
I8
tp3868
as(S'req0_u10_1'
p3869
S'req0_u11_1'
p3870
tp3871
(lp3872
(I7
I7
tp3873
as(S'req0_u4_2'
p3874
S'req0_u6_2'
p3875
tp3876
(lp3877
(I0
I0
tp3878
as(S'req0_u10_0'
p3879
S'req0_u11_0'
p3880
tp3881
(lp3882
(I10
I10
tp3883
as(S'req0_u4_3'
p3884
S'req0_u10_3'
p3885
tp3886
(lp3887
(I8
I8
tp3888
as(S'req0_u4_2'
p3889
S'req0_u10_2'
p3890
tp3891
(lp3892
(I0
I0
tp3893
as(S'req0_u9_2'
p3894
S'req0_u11_2'
p3895
tp3896
(lp3897
(I0
I0
tp3898
as(S'req0_u9_3'
p3899
S'req0_u11_3'
p3900
tp3901
(lp3902
(I8
I8
tp3903
as(S'req0_u8_0'
p3904
S'req0_u9_0'
p3905
tp3906
(lp3907
(I3
I10
tp3908
as(S'req0_u7_3'
p3909
S'req0_u11_3'
p3910
tp3911
(lp3912
(I8
I8
tp3913
as(S'req0_u6_3'
p3914
S'req0_u7_3'
p3915
tp3916
(lp3917
(I8
I8
tp3918
as(S'req0_u8_2'
p3919
S'req0_u9_2'
p3920
tp3921
(lp3922
(I0
I0
tp3923
as(S'req0_u4_2'
p3924
S'req0_u8_2'
p3925
tp3926
(lp3927
(I0
I0
tp3928
as(S'req0_u8_3'
p3929
S'req0_u9_3'
p3930
tp3931
(lp3932
(I8
I8
tp3933
as(g3716
S'req0_u2_0'
p3934
tp3935
(lp3936
(I4
I6
tp3937
as(S'req0_u9_0'
p3938
S'req0_u11_0'
p3939
tp3940
(lp3941
(I10
I10
tp3942
as(S'req0_u2_0'
p3943
S'req0_u3_0'
p3944
tp3945
(lp3946
(I6
I3
tp3947
as(S'req0_u5_2'
p3948
S'req0_u11_2'
p3949
tp3950
(lp3951
(I0
I0
tp3952
as(S'req0_u9_1'
p3953
S'req0_u11_1'
p3954
tp3955
(lp3956
(I7
I7
tp3957
as(S'req0_u2_3'
p3958
S'req0_u3_3'
p3959
tp3960
(lp3961
(I1
I11
tp3962
a(I11
I8
tp3963
as(S'req0_u2_2'
p3964
S'req0_u3_2'
p3965
tp3966
(lp3967
(I0
I0
tp3968
as(S'req0_u8_1'
p3969
S'req0_u9_1'
p3970
tp3971
(lp3972
(I7
I7
tp3973
as(S'req0_u7_2'
p3974
S'req0_u11_2'
p3975
tp3976
(lp3977
(I0
I0
tp3978
as(S'req0_u6_0'
p3979
S'req0_u7_0'
p3980
tp3981
(lp3982
(I10
I10
tp3983
as(S'req0_u10_3'
p3984
S'req0_u11_3'
p3985
tp3986
(lp3987
(I8
I8
tp3988
as(S'req0_u11_1'
p3989
S'req0_a2_1'
p3990
tp3991
(lp3992
(I7
I7
tp3993
as(S'req0_u5_3'
p3994
S'req0_u11_3'
p3995
tp3996
(lp3997
(I8
I8
tp3998
assg368
(dp3999
(I4
I7
tp4000
F0.16666666666666666
s(I5
I6
tp4001
F0.0
s(I2
I8
tp4002
F0.0
s(I5
I1
tp4003
F0.0
s(I2
I5
tp4004
F0.0
s(I1
I11
tp4005
F0.25
s(I10
I3
tp4006
F0.0
s(I3
I10
tp4007
F0.35625066666666666
s(I6
I3
tp4008
F0.25
s(I1
I5
tp4009
F0.0
s(I11
I1
tp4010
F0.0
s(I3
I6
tp4011
F0.0
s(I4
I1
tp4012
F0.3333333333333333
s(I10
I9
tp4013
F0.0
s(I9
I7
tp4014
F0.0
s(I6
I4
tp4015
F0.0
s(I8
I2
tp4016
F0.0
s(I8
I11
tp4017
F0.0
s(I9
I3
tp4018
F0.0
s(I1
I4
tp4019
F0.0
s(I9
I10
tp4020
F0.0
s(I3
I9
tp4021
F0.0
s(I1
I0
tp4022
F0.16666666666666666
s(I6
I5
tp4023
F0.0
s(I7
I9
tp4024
F0.0
s(I0
I1
tp4025
F0.0
s(I4
I6
tp4026
F0.16666666666666666
s(I11
I8
tp4027
F0.25
s(I7
I4
tp4028
F0.0
s(I5
I2
tp4029
F0.0
ssg400
F42090.623999999996
sg401
(dp4030
S'req0_u2_2'
p4031
(lp4032
I0
asS'req0_u2_3'
p4033
(lp4034
I1
asS'req0_u2_0'
p4035
(lp4036
I6
asS'req0_u2_1'
p4037
(lp4038
I7
asS'req0_u9_1'
p4039
(lp4040
I7
asS'req0_u9_0'
p4041
(lp4042
I10
asS'req0_a2_0'
p4043
(lp4044
I10
asS'req0_a2_1'
p4045
(lp4046
I7
asS'req0_u3_3'
p4047
(lp4048
I8
asS'req0_u3_2'
p4049
(lp4050
I0
asS'req0_u3_1'
p4051
(lp4052
I7
asS'req0_u3_0'
p4053
(lp4054
I3
asS'req0_u4_0'
p4055
(lp4056
I3
asS'req0_u4_1'
p4057
(lp4058
I7
asS'req0_u4_2'
p4059
(lp4060
I0
asS'req0_u4_3'
p4061
(lp4062
I8
asS'req0_u5_1'
p4063
(lp4064
I7
asS'req0_u5_0'
p4065
(lp4066
I10
asS'req0_u5_3'
p4067
(lp4068
I8
asS'req0_u5_2'
p4069
(lp4070
I0
asS'req0_a2_3'
p4071
(lp4072
I8
asS'req0_u9_3'
p4073
(lp4074
I8
asS'req0_a2_2'
p4075
(lp4076
I0
asg449
(lp4077
I4
asS'req0_u9_2'
p4078
(lp4079
I0
asg453
(lp4080
I4
asS'req0_u6_2'
p4081
(lp4082
I0
asS'req0_u6_3'
p4083
(lp4084
I8
asS'req0_u6_0'
p4085
(lp4086
I10
asS'req0_u6_1'
p4087
(lp4088
I7
asS'req0_u11_1'
p4089
(lp4090
I7
asS'req0_u11_0'
p4091
(lp4092
I10
asS'req0_u11_3'
p4093
(lp4094
I8
asS'req0_u11_2'
p4095
(lp4096
I0
asS'req0_u7_3'
p4097
(lp4098
I8
asS'req0_u7_2'
p4099
(lp4100
I0
asS'req0_u7_1'
p4101
(lp4102
I7
asS'req0_u7_0'
p4103
(lp4104
I10
asS'req0_u10_0'
p4105
(lp4106
I10
asS'req0_u10_1'
p4107
(lp4108
I7
asS'req0_u10_2'
p4109
(lp4110
I0
asS'req0_u10_3'
p4111
(lp4112
I8
asS'req0_u8_0'
p4113
(lp4114
I3
asS'req0_u8_1'
p4115
(lp4116
I7
asS'req0_u8_2'
p4117
(lp4118
I0
asS'req0_u8_3'
p4119
(lp4120
I8
assg495
(dp4121
(g497
g498
tp4122
F0.05296974927930268
s(g500
g501
tp4123
F0.11615626792049125
s(g503
g504
tp4124
F0.12644106603656907
s(g506
g507
tp4125
F0.07412559185753094
s(g509
g510
tp4126
I-1
ssg512
I41
sg513
F5000.0
sg514
I42
sg515
F2433.5905166666666
sg516
I0
sg517
F0.19877408416666673
sg518
I8
sg519
I41
ssS"[('req0_a1', 'req0_u3'), ('req0_u3', 'req0_u1'), ('req0_u1', 'req0_u2_0'), ('req0_u1', 'req0_u2_1'), ('req0_u1', 'req0_u2_2'), ('req0_u1', 'req0_u2_3'), ('req0_u2_0', 'req0_u4_0'), ('req0_u4_0', 'req0_u5_0'), ('req0_u4_0', 'req0_u7_0'), ('req0_u7_0', 'req0_u6_0'), ('req0_u4_0', 'req0_u8_0'), ('req0_u8_0', 'req0_u9_0'), ('req0_u4_0', 'req0_u10_0'), ('req0_u5_0', 'req0_u11_0'), ('req0_u6_0', 'req0_u11_0'), ('req0_u9_0', 'req0_u11_0'), ('req0_u10_0', 'req0_u11_0'), ('req0_u11_0', 'req0_a2_0'), ('req0_u2_1', 'req0_u4_1'), ('req0_u4_1', 'req0_u5_1'), ('req0_u4_1', 'req0_u7_1'), ('req0_u7_1', 'req0_u6_1'), ('req0_u4_1', 'req0_u8_1'), ('req0_u8_1', 'req0_u9_1'), ('req0_u4_1', 'req0_u10_1'), ('req0_u5_1', 'req0_u11_1'), ('req0_u6_1', 'req0_u11_1'), ('req0_u9_1', 'req0_u11_1'), ('req0_u10_1', 'req0_u11_1'), ('req0_u11_1', 'req0_a2_1'), ('req0_u2_2', 'req0_u4_2'), ('req0_u4_2', 'req0_u5_2'), ('req0_u4_2', 'req0_u7_2'), ('req0_u7_2', 'req0_u6_2'), ('req0_u4_2', 'req0_u8_2'), ('req0_u8_2', 'req0_u9_2'), ('req0_u4_2', 'req0_u10_2'), ('req0_u5_2', 'req0_u11_2'), ('req0_u6_2', 'req0_u11_2'), ('req0_u9_2', 'req0_u11_2'), ('req0_u10_2', 'req0_u11_2'), ('req0_u11_2', 'req0_a2_2'), ('req0_u2_3', 'req0_u4_3'), ('req0_u4_3', 'req0_u5_3'), ('req0_u4_3', 'req0_u7_3'), ('req0_u7_3', 'req0_u6_3'), ('req0_u4_3', 'req0_u8_3'), ('req0_u8_3', 'req0_u9_3'), ('req0_u4_3', 'req0_u10_3'), ('req0_u5_3', 'req0_u11_3'), ('req0_u6_3', 'req0_u11_3'), ('req0_u9_3', 'req0_u11_3'), ('req0_u10_3', 'req0_u11_3'), ('req0_u11_3', 'req0_a2_3')]"
p4127
(dp4128
g3
(dp4129
S'CACHE'
p4130
I4
sS'LB'
p4131
I1
sS'FW'
p4132
I4
sS'WAPGW'
p4133
I4
sS'IDS'
p4134
I4
sS'PCTL'
p4135
I4
sS'IPS'
p4136
I4
sS'VOPT'
p4137
I4
sS'HHE'
p4138
I0
sS'AV'
p4139
I1
sS'WOPT'
p4140
I4
sS'PRX'
p4141
I0
sS'DPI'
p4142
I4
ssg18
F196772.0
sg19
I12
sg20
F0.08104904444444445
sg21
(dp4143
I0
F0.20135819000000002
sI1
F0.703125
sI2
F0.0
sI3
F0.05625
sI4
F0.875
sI5
F0.8015631875
sI6
F0.0
sI7
F0.20135819000000002
sI8
F0.13385819000000002
sI9
F0.0
sI10
F0.06410808000000001
sI11
F0.0
ssg23
F0.42462160171983887
sg24
I01
sg25
F29847.836200000005
sg26
F1500.0
sg27
F750.0
sg28
F100.0
sg29
g30
sg31
F1378.426433333333
sg32
F2.1231080085991945
sg33
(dp4144
(I4
I7
tp4145
F1312.5
s(I5
I6
tp4146
F974.7649999999999
s(I2
I8
tp4147
F1500.0
s(I5
I1
tp4148
F1500.0
s(I2
I5
tp4149
F1500.0
s(I1
I11
tp4150
F1218.7489999999998
s(I10
I3
tp4151
F1500.0
s(I3
I10
tp4152
F965.7649999999999
s(I6
I3
tp4153
F974.7649999999999
s(I1
I5
tp4154
F1312.5
s(I11
I1
tp4155
F1500.0
s(I3
I6
tp4156
F1500.0
s(I4
I1
tp4157
F750.0
s(I10
I9
tp4158
F1500.0
s(I9
I7
tp4159
F1500.0
s(I6
I4
tp4160
F1500.0
s(I8
I2
tp4161
F1500.0
s(I8
I11
tp4162
F1500.0
s(I9
I3
tp4163
F1500.0
s(I1
I4
tp4164
F1312.5
s(I9
I10
tp4165
F1500.0
s(I3
I9
tp4166
F1500.0
s(I1
I0
tp4167
F1312.5
s(I6
I5
tp4168
F1500.0
s(I7
I9
tp4169
F1500.0
s(I0
I1
tp4170
F1500.0
s(I4
I6
tp4171
F1500.0
s(I11
I8
tp4172
F1218.7489999999998
s(I7
I4
tp4173
F1500.0
s(I5
I2
tp4174
F1500.0
ssg65
(dp4175
I0
F3993.2090500000004
sI1
F237.5
sI2
F5000.0
sI3
F755.0
sI4
F100.0
sI5
F158.74945000000002
sI6
F800.0
sI7
F3993.2090500000004
sI8
F4330.70905
sI9
F800.0
sI10
F4679.4596
sI11
F5000.0
ssg67
F41352.79299999999
sg68
(dp4176
g4130
(lp4177
I0
aI5
aI7
aI8
asg4131
(lp4178
I1
asg4132
(lp4179
I0
aI5
aI7
aI8
asg4133
(lp4180
I0
aI5
aI7
aI8
asg4134
(lp4181
I0
aI5
aI7
aI8
asg4135
(lp4182
I0
aI3
aI7
aI8
asg4136
(lp4183
I0
aI7
aI8
aI10
asg4137
(lp4184
I0
aI5
aI7
aI8
asg4138
(lp4185
sg4139
(lp4186
I4
asg4140
(lp4187
I0
aI1
aI5
aI7
asg4141
(lp4188
sg4142
(lp4189
I0
aI1
aI5
aI7
assg83
(dp4190
(S'req0_u1'
p4191
S'req0_u2_1'
p4192
tp4193
(lp4194
(I1
I4
tp4195
a(I4
I7
tp4196
as(S'req0_u8_0'
p4197
S'req0_u9_0'
p4198
tp4199
(lp4200
(I5
I5
tp4201
as(S'req0_u11_0'
p4202
S'req0_a2_0'
p4203
tp4204
(lp4205
(I10
I10
tp4206
as(S'req0_u5_0'
p4207
S'req0_u11_0'
p4208
tp4209
(lp4210
(I3
I10
tp4211
a(I5
I6
tp4212
a(I6
I3
tp4213
as(S'req0_u4_3'
p4214
S'req0_u8_3'
p4215
tp4216
(lp4217
(I1
I11
tp4218
a(I11
I8
tp4219
as(S'req0_u4_3'
p4220
S'req0_u5_3'
p4221
tp4222
(lp4223
(I1
I11
tp4224
a(I11
I8
tp4225
as(S'req0_u5_1'
p4226
S'req0_u11_1'
p4227
tp4228
(lp4229
(I7
I7
tp4230
as(S'req0_u10_1'
p4231
S'req0_u11_1'
p4232
tp4233
(lp4234
(I7
I7
tp4235
as(S'req0_u6_2'
p4236
S'req0_u11_2'
p4237
tp4238
(lp4239
(I0
I0
tp4240
as(S'req0_u9_3'
p4241
S'req0_u11_3'
p4242
tp4243
(lp4244
(I8
I8
tp4245
as(S'req0_u10_2'
p4246
S'req0_u11_2'
p4247
tp4248
(lp4249
(I0
I0
tp4250
as(S'req0_u2_1'
p4251
S'req0_u4_1'
p4252
tp4253
(lp4254
(I7
I7
tp4255
as(g4191
S'req0_u2_2'
p4256
tp4257
(lp4258
(I1
I0
tp4259
as(S'req0_u4_1'
p4260
S'req0_u8_1'
p4261
tp4262
(lp4263
(I7
I7
tp4264
as(S'req0_u10_3'
p4265
S'req0_u11_3'
p4266
tp4267
(lp4268
(I8
I8
tp4269
as(S'req0_u4_2'
p4270
S'req0_u5_2'
p4271
tp4272
(lp4273
(I0
I0
tp4274
as(S'req0_u4_0'
p4275
S'req0_u8_0'
p4276
tp4277
(lp4278
(I5
I5
tp4279
as(S'req0_u4_1'
p4280
S'req0_u5_1'
p4281
tp4282
(lp4283
(I7
I7
tp4284
as(S'req0_u4_1'
p4285
S'req0_u10_1'
p4286
tp4287
(lp4288
(I7
I7
tp4289
as(S'req0_u4_3'
p4290
S'req0_u7_3'
p4291
tp4292
(lp4293
(I1
I11
tp4294
a(I11
I8
tp4295
as(S'req0_u4_0'
p4296
S'req0_u5_0'
p4297
tp4298
(lp4299
(I5
I5
tp4300
as(S'req0_u6_3'
p4301
S'req0_u11_3'
p4302
tp4303
(lp4304
(I8
I8
tp4305
as(g4191
S'req0_u2_3'
p4306
tp4307
(lp4308
(I1
I1
tp4309
as(S'req0_u4_0'
p4310
S'req0_u10_0'
p4311
tp4312
(lp4313
(I5
I5
tp4314
as(S'req0_u6_1'
p4315
S'req0_u11_1'
p4316
tp4317
(lp4318
(I7
I7
tp4319
as(S'req0_u11_3'
p4320
S'req0_a2_3'
p4321
tp4322
(lp4323
(I8
I8
tp4324
as(S'req0_u7_3'
p4325
S'req0_u6_3'
p4326
tp4327
(lp4328
(I8
I8
tp4329
as(S'req0_u2_0'
p4330
S'req0_u4_0'
p4331
tp4332
(lp4333
(I5
I5
tp4334
as(S'req0_u6_0'
p4335
S'req0_u11_0'
p4336
tp4337
(lp4338
(I3
I10
tp4339
as(S'req0_u7_2'
p4340
S'req0_u6_2'
p4341
tp4342
(lp4343
(I0
I0
tp4344
as(S'req0_u3'
p4345
g4191
tp4346
(lp4347
(I4
I1
tp4348
as(S'req0_u10_0'
p4349
S'req0_u11_0'
p4350
tp4351
(lp4352
(I3
I10
tp4353
a(I5
I6
tp4354
a(I6
I3
tp4355
as(S'req0_u7_1'
p4356
S'req0_u6_1'
p4357
tp4358
(lp4359
(I7
I7
tp4360
as(S'req0_u2_2'
p4361
S'req0_u4_2'
p4362
tp4363
(lp4364
(I0
I0
tp4365
as(S'req0_u4_3'
p4366
S'req0_u10_3'
p4367
tp4368
(lp4369
(I1
I11
tp4370
a(I11
I8
tp4371
as(S'req0_u4_2'
p4372
S'req0_u10_2'
p4373
tp4374
(lp4375
(I0
I0
tp4376
as(S'req0_u4_2'
p4377
S'req0_u8_2'
p4378
tp4379
(lp4380
(I0
I0
tp4381
as(S'req0_u7_0'
p4382
S'req0_u6_0'
p4383
tp4384
(lp4385
(I5
I6
tp4386
a(I6
I3
tp4387
as(S'req0_u2_3'
p4388
S'req0_u4_3'
p4389
tp4390
(lp4391
(I1
I1
tp4392
as(S'req0_a1'
p4393
g4345
tp4394
(lp4395
(I4
I4
tp4396
as(S'req0_u8_2'
p4397
S'req0_u9_2'
p4398
tp4399
(lp4400
(I0
I0
tp4401
as(S'req0_u4_2'
p4402
S'req0_u7_2'
p4403
tp4404
(lp4405
(I0
I0
tp4406
as(S'req0_u8_3'
p4407
S'req0_u9_3'
p4408
tp4409
(lp4410
(I8
I8
tp4411
as(g4191
S'req0_u2_0'
p4412
tp4413
(lp4414
(I1
I5
tp4415
as(S'req0_u9_2'
p4416
S'req0_u11_2'
p4417
tp4418
(lp4419
(I0
I0
tp4420
as(S'req0_u9_0'
p4421
S'req0_u11_0'
p4422
tp4423
(lp4424
(I3
I10
tp4425
a(I5
I6
tp4426
a(I6
I3
tp4427
as(S'req0_u11_2'
p4428
S'req0_a2_2'
p4429
tp4430
(lp4431
(I0
I0
tp4432
as(S'req0_u5_2'
p4433
S'req0_u11_2'
p4434
tp4435
(lp4436
(I0
I0
tp4437
as(S'req0_u4_0'
p4438
S'req0_u7_0'
p4439
tp4440
(lp4441
(I5
I5
tp4442
as(S'req0_u9_1'
p4443
S'req0_u11_1'
p4444
tp4445
(lp4446
(I7
I7
tp4447
as(S'req0_u4_1'
p4448
S'req0_u7_1'
p4449
tp4450
(lp4451
(I7
I7
tp4452
as(S'req0_u8_1'
p4453
S'req0_u9_1'
p4454
tp4455
(lp4456
(I7
I7
tp4457
as(S'req0_u11_1'
p4458
S'req0_a2_1'
p4459
tp4460
(lp4461
(I7
I7
tp4462
as(S'req0_u5_3'
p4463
S'req0_u11_3'
p4464
tp4465
(lp4466
(I8
I8
tp4467
assg368
(dp4468
(I4
I7
tp4469
F0.125
s(I5
I6
tp4470
F0.35015666666666667
s(I2
I8
tp4471
F0.0
s(I5
I1
tp4472
F0.0
s(I2
I5
tp4473
F0.0
s(I1
I11
tp4474
F0.18750066666666665
s(I10
I3
tp4475
F0.0
s(I3
I10
tp4476
F0.3561566666666667
s(I6
I3
tp4477
F0.35015666666666667
s(I1
I5
tp4478
F0.125
s(I11
I1
tp4479
F0.0
s(I3
I6
tp4480
F0.0
s(I4
I1
tp4481
F0.5
s(I10
I9
tp4482
F0.0
s(I9
I7
tp4483
F0.0
s(I6
I4
tp4484
F0.0
s(I8
I2
tp4485
F0.0
s(I8
I11
tp4486
F0.0
s(I9
I3
tp4487
F0.0
s(I1
I4
tp4488
F0.125
s(I9
I10
tp4489
F0.0
s(I3
I9
tp4490
F0.0
s(I1
I0
tp4491
F0.125
s(I6
I5
tp4492
F0.0
s(I7
I9
tp4493
F0.0
s(I0
I1
tp4494
F0.0
s(I4
I6
tp4495
F0.0
s(I11
I8
tp4496
F0.18750066666666665
s(I7
I4
tp4497
F0.0
s(I5
I2
tp4498
F0.0
ssg400
F41352.79299999999
sg401
(dp4499
S'req0_u2_2'
p4500
(lp4501
I0
asS'req0_u2_3'
p4502
(lp4503
I1
asS'req0_u2_0'
p4504
(lp4505
I5
asS'req0_u2_1'
p4506
(lp4507
I7
asS'req0_u9_1'
p4508
(lp4509
I7
asS'req0_u9_0'
p4510
(lp4511
I5
asS'req0_a2_0'
p4512
(lp4513
I10
asS'req0_a2_1'
p4514
(lp4515
I7
asS'req0_u4_0'
p4516
(lp4517
I5
asS'req0_u4_1'
p4518
(lp4519
I7
asS'req0_u4_2'
p4520
(lp4521
I0
asS'req0_u4_3'
p4522
(lp4523
I1
asS'req0_u5_1'
p4524
(lp4525
I7
asS'req0_u5_0'
p4526
(lp4527
I5
asS'req0_u5_3'
p4528
(lp4529
I8
asS'req0_u5_2'
p4530
(lp4531
I0
asS'req0_a2_3'
p4532
(lp4533
I8
asS'req0_u9_3'
p4534
(lp4535
I8
asS'req0_a2_2'
p4536
(lp4537
I0
asg449
(lp4538
I4
asS'req0_u9_2'
p4539
(lp4540
I0
asg1354
(lp4541
I4
asg453
(lp4542
I1
asS'req0_u6_2'
p4543
(lp4544
I0
asS'req0_u6_3'
p4545
(lp4546
I8
asS'req0_u6_0'
p4547
(lp4548
I3
asS'req0_u6_1'
p4549
(lp4550
I7
asS'req0_u11_1'
p4551
(lp4552
I7
asS'req0_u11_0'
p4553
(lp4554
I10
asS'req0_u11_3'
p4555
(lp4556
I8
asS'req0_u11_2'
p4557
(lp4558
I0
asS'req0_u7_3'
p4559
(lp4560
I8
asS'req0_u7_2'
p4561
(lp4562
I0
asS'req0_u7_1'
p4563
(lp4564
I7
asS'req0_u7_0'
p4565
(lp4566
I5
asS'req0_u10_0'
p4567
(lp4568
I5
asS'req0_u10_1'
p4569
(lp4570
I7
asS'req0_u10_2'
p4571
(lp4572
I0
asS'req0_u10_3'
p4573
(lp4574
I8
asS'req0_u8_0'
p4575
(lp4576
I5
asS'req0_u8_1'
p4577
(lp4578
I7
asS'req0_u8_2'
p4579
(lp4580
I0
asS'req0_u8_3'
p4581
(lp4582
I8
assg495
(dp4583
(g497
g498
tp4584
F0.13657270899133322
s(g500
g501
tp4585
F0.11615626792049413
s(g503
g504
tp4586
F0.2039224334026326
s(g506
g507
tp4587
F0.07412559183533864
s(g509
g510
tp4588
I-1
ssg512
I38
sg513
F5000.0
sg514
I42
sg515
F2487.3196833333336
sg516
I10
sg517
F0.2530517364583334
sg518
I8
sg519
I38
ssS"[('req0_a1', 'req0_u1'), ('req0_u1', 'req0_u2_0'), ('req0_u1', 'req0_u2_1'), ('req0_u1', 'req0_u2_2'), ('req0_u1', 'req0_u2_3'), ('req0_u2_0', 'req0_u3_0'), ('req0_u2_1', 'req0_u3_1'), ('req0_u2_2', 'req0_u3_2'), ('req0_u2_3', 'req0_u3_3'), ('req0_u3_0', 'req0_u4_0'), ('req0_u4_0', 'req0_u5_0'), ('req0_u4_0', 'req0_u7_0'), ('req0_u7_0', 'req0_u6_0'), ('req0_u4_0', 'req0_u8_0'), ('req0_u8_0', 'req0_u9_0'), ('req0_u4_0', 'req0_u10_0'), ('req0_u5_0', 'req0_u11_0'), ('req0_u6_0', 'req0_u11_0'), ('req0_u9_0', 'req0_u11_0'), ('req0_u10_0', 'req0_u11_0'), ('req0_u11_0', 'req0_a2_0'), ('req0_u3_1', 'req0_u4_1'), ('req0_u4_1', 'req0_u5_1'), ('req0_u4_1', 'req0_u7_1'), ('req0_u7_1', 'req0_u6_1'), ('req0_u4_1', 'req0_u8_1'), ('req0_u8_1', 'req0_u9_1'), ('req0_u4_1', 'req0_u10_1'), ('req0_u5_1', 'req0_u11_1'), ('req0_u6_1', 'req0_u11_1'), ('req0_u9_1', 'req0_u11_1'), ('req0_u10_1', 'req0_u11_1'), ('req0_u11_1', 'req0_a2_1'), ('req0_u3_2', 'req0_u4_2'), ('req0_u4_2', 'req0_u5_2'), ('req0_u4_2', 'req0_u7_2'), ('req0_u7_2', 'req0_u6_2'), ('req0_u4_2', 'req0_u8_2'), ('req0_u8_2', 'req0_u9_2'), ('req0_u4_2', 'req0_u10_2'), ('req0_u5_2', 'req0_u11_2'), ('req0_u6_2', 'req0_u11_2'), ('req0_u9_2', 'req0_u11_2'), ('req0_u10_2', 'req0_u11_2'), ('req0_u11_2', 'req0_a2_2'), ('req0_u3_3', 'req0_u4_3'), ('req0_u4_3', 'req0_u5_3'), ('req0_u4_3', 'req0_u7_3'), ('req0_u7_3', 'req0_u6_3'), ('req0_u4_3', 'req0_u8_3'), ('req0_u8_3', 'req0_u9_3'), ('req0_u4_3', 'req0_u10_3'), ('req0_u5_3', 'req0_u11_3'), ('req0_u6_3', 'req0_u11_3'), ('req0_u9_3', 'req0_u11_3'), ('req0_u10_3', 'req0_u11_3'), ('req0_u11_3', 'req0_a2_3')]"
p4589
(dp4590
g3
(dp4591
S'CACHE'
p4592
I4
sS'LB'
p4593
I1
sS'FW'
p4594
I4
sS'WAPGW'
p4595
I4
sS'IDS'
p4596
I4
sS'PCTL'
p4597
I4
sS'IPS'
p4598
I4
sS'VOPT'
p4599
I4
sS'HHE'
p4600
I0
sS'AV'
p4601
I4
sS'WOPT'
p4602
I4
sS'PRX'
p4603
I0
sS'DPI'
p4604
I4
ssg18
F174775.0
sg19
I12
sg20
F0.058333333333333334
sg21
(dp4605
I0
F0.2613581900000001
sI1
F0.1875
sI2
F0.0
sI3
F0.1875
sI4
F0.375
sI5
F0.0
sI6
F0.0
sI7
F0.26135819000000005
sI8
F0.23135819000000005
sI9
F0.0
sI10
F0.23135819000000005
sI11
F0.0
ssg23
F0.29575414007952905
sg24
I01
sg25
F29272.8362
sg26
F1500.0
sg27
F1000.0
sg28
F500.0
sg29
g30
sg31
F1412.5
sg32
F1.4787707003976454
sg33
(dp4606
(I4
I7
tp4607
F1250.0
s(I5
I6
tp4608
F1500.0
s(I2
I8
tp4609
F1500.0
s(I5
I1
tp4610
F1500.0
s(I2
I5
tp4611
F1500.0
s(I1
I11
tp4612
F1125.0
s(I10
I3
tp4613
F1500.0
s(I3
I10
tp4614
F1125.0
s(I6
I3
tp4615
F1250.0
s(I1
I5
tp4616
F1500.0
s(I11
I1
tp4617
F1500.0
s(I3
I6
tp4618
F1500.0
s(I4
I1
tp4619
F1000.0
s(I10
I9
tp4620
F1500.0
s(I9
I7
tp4621
F1500.0
s(I6
I4
tp4622
F1500.0
s(I8
I2
tp4623
F1500.0
s(I8
I11
tp4624
F1500.0
s(I9
I3
tp4625
F1500.0
s(I1
I4
tp4626
F1500.0
s(I9
I10
tp4627
F1500.0
s(I3
I9
tp4628
F1500.0
s(I1
I0
tp4629
F1250.0
s(I6
I5
tp4630
F1500.0
s(I7
I9
tp4631
F1500.0
s(I0
I1
tp4632
F1500.0
s(I4
I6
tp4633
F1250.0
s(I11
I8
tp4634
F1125.0
s(I7
I4
tp4635
F1500.0
s(I5
I2
tp4636
F1500.0
ssg65
(dp4637
I0
F3693.20905
sI1
F650.0
sI2
F5000.0
sI3
F650.0
sI4
F500.0
sI5
F800.0
sI6
F800.0
sI7
F3693.20905
sI8
F3843.2090500000004
sI9
F800.0
sI10
F3843.20905
sI11
F5000.0
ssg67
F42375.0
sg68
(dp4638
g4592
(lp4639
I0
aI7
aI8
aI10
asg4593
(lp4640
I4
asg4594
(lp4641
I0
aI7
aI8
aI10
asg4595
(lp4642
I0
aI7
aI8
aI10
asg4596
(lp4643
I0
aI7
aI8
aI10
asg4597
(lp4644
I0
aI7
aI8
aI10
asg4598
(lp4645
I0
aI7
aI8
aI10
asg4599
(lp4646
I0
aI7
aI8
aI10
asg4600
(lp4647
sg4601
(lp4648
I0
aI7
aI8
aI10
asg4602
(lp4649
I0
aI1
aI3
aI7
asg4603
(lp4650
sg4604
(lp4651
I0
aI7
aI8
aI10
assg83
(dp4652
(S'req0_u1'
p4653
S'req0_u2_1'
p4654
tp4655
(lp4656
(I4
I7
tp4657
as(S'req0_u3_0'
p4658
S'req0_u4_0'
p4659
tp4660
(lp4661
(I10
I10
tp4662
as(S'req0_u11_0'
p4663
S'req0_a2_0'
p4664
tp4665
(lp4666
(I10
I10
tp4667
as(S'req0_u5_0'
p4668
S'req0_u11_0'
p4669
tp4670
(lp4671
(I10
I10
tp4672
as(S'req0_u3_1'
p4673
S'req0_u4_1'
p4674
tp4675
(lp4676
(I7
I7
tp4677
as(S'req0_u11_2'
p4678
S'req0_a2_2'
p4679
tp4680
(lp4681
(I0
I0
tp4682
as(S'req0_u4_3'
p4683
S'req0_u5_3'
p4684
tp4685
(lp4686
(I8
I8
tp4687
as(S'req0_u5_1'
p4688
S'req0_u11_1'
p4689
tp4690
(lp4691
(I7
I7
tp4692
as(S'req0_u10_1'
p4693
S'req0_u11_1'
p4694
tp4695
(lp4696
(I7
I7
tp4697
as(S'req0_u3_3'
p4698
S'req0_u4_3'
p4699
tp4700
(lp4701
(I8
I8
tp4702
as(S'req0_u6_2'
p4703
S'req0_u11_2'
p4704
tp4705
(lp4706
(I0
I0
tp4707
as(S'req0_u3_2'
p4708
S'req0_u4_2'
p4709
tp4710
(lp4711
(I0
I0
tp4712
as(S'req0_u10_2'
p4713
S'req0_u11_2'
p4714
tp4715
(lp4716
(I0
I0
tp4717
as(S'req0_a1'
p4718
g4653
tp4719
(lp4720
(I4
I4
tp4721
as(g4653
S'req0_u2_2'
p4722
tp4723
(lp4724
(I1
I0
tp4725
a(I4
I1
tp4726
as(S'req0_u4_1'
p4727
S'req0_u8_1'
p4728
tp4729
(lp4730
(I7
I7
tp4731
as(S'req0_u2_1'
p4732
S'req0_u3_1'
p4733
tp4734
(lp4735
(I7
I7
tp4736
as(S'req0_u4_2'
p4737
S'req0_u5_2'
p4738
tp4739
(lp4740
(I0
I0
tp4741
as(S'req0_u4_0'
p4742
S'req0_u8_0'
p4743
tp4744
(lp4745
(I10
I10
tp4746
as(S'req0_u4_1'
p4747
S'req0_u5_1'
p4748
tp4749
(lp4750
(I7
I7
tp4751
as(S'req0_u4_1'
p4752
S'req0_u10_1'
p4753
tp4754
(lp4755
(I7
I7
tp4756
as(S'req0_u4_3'
p4757
S'req0_u7_3'
p4758
tp4759
(lp4760
(I8
I8
tp4761
as(S'req0_u4_0'
p4762
S'req0_u5_0'
p4763
tp4764
(lp4765
(I10
I10
tp4766
as(S'req0_u6_3'
p4767
S'req0_u11_3'
p4768
tp4769
(lp4770
(I8
I8
tp4771
as(g4653
S'req0_u2_3'
p4772
tp4773
(lp4774
(I4
I1
tp4775
as(S'req0_u4_0'
p4776
S'req0_u10_0'
p4777
tp4778
(lp4779
(I10
I10
tp4780
as(S'req0_u6_1'
p4781
S'req0_u11_1'
p4782
tp4783
(lp4784
(I7
I7
tp4785
as(S'req0_u11_3'
p4786
S'req0_a2_3'
p4787
tp4788
(lp4789
(I8
I8
tp4790
as(S'req0_u7_3'
p4791
S'req0_u6_3'
p4792
tp4793
(lp4794
(I8
I8
tp4795
as(S'req0_u4_3'
p4796
S'req0_u8_3'
p4797
tp4798
(lp4799
(I8
I8
tp4800
as(S'req0_u6_0'
p4801
S'req0_u11_0'
p4802
tp4803
(lp4804
(I10
I10
tp4805
as(S'req0_u7_2'
p4806
S'req0_u6_2'
p4807
tp4808
(lp4809
(I0
I0
tp4810
as(S'req0_u10_0'
p4811
S'req0_u11_0'
p4812
tp4813
(lp4814
(I10
I10
tp4815
as(S'req0_u7_1'
p4816
S'req0_u6_1'
p4817
tp4818
(lp4819
(I7
I7
tp4820
as(S'req0_u4_3'
p4821
S'req0_u10_3'
p4822
tp4823
(lp4824
(I8
I8
tp4825
as(S'req0_u4_2'
p4826
S'req0_u10_2'
p4827
tp4828
(lp4829
(I0
I0
tp4830
as(S'req0_u4_2'
p4831
S'req0_u8_2'
p4832
tp4833
(lp4834
(I0
I0
tp4835
as(S'req0_u7_0'
p4836
S'req0_u6_0'
p4837
tp4838
(lp4839
(I10
I10
tp4840
as(S'req0_u9_3'
p4841
S'req0_u11_3'
p4842
tp4843
(lp4844
(I8
I8
tp4845
as(S'req0_u8_0'
p4846
S'req0_u9_0'
p4847
tp4848
(lp4849
(I10
I10
tp4850
as(S'req0_u8_2'
p4851
S'req0_u9_2'
p4852
tp4853
(lp4854
(I0
I0
tp4855
as(S'req0_u4_2'
p4856
S'req0_u7_2'
p4857
tp4858
(lp4859
(I0
I0
tp4860
as(S'req0_u8_3'
p4861
S'req0_u9_3'
p4862
tp4863
(lp4864
(I8
I8
tp4865
as(g4653
S'req0_u2_0'
p4866
tp4867
(lp4868
(I4
I6
tp4869
a(I6
I3
tp4870
as(S'req0_u9_2'
p4871
S'req0_u11_2'
p4872
tp4873
(lp4874
(I0
I0
tp4875
as(S'req0_u9_0'
p4876
S'req0_u11_0'
p4877
tp4878
(lp4879
(I10
I10
tp4880
as(S'req0_u2_0'
p4881
S'req0_u3_0'
p4882
tp4883
(lp4884
(I3
I10
tp4885
as(S'req0_u5_2'
p4886
S'req0_u11_2'
p4887
tp4888
(lp4889
(I0
I0
tp4890
as(S'req0_u4_0'
p4891
S'req0_u7_0'
p4892
tp4893
(lp4894
(I10
I10
tp4895
as(S'req0_u9_1'
p4896
S'req0_u11_1'
p4897
tp4898
(lp4899
(I7
I7
tp4900
as(S'req0_u2_3'
p4901
S'req0_u3_3'
p4902
tp4903
(lp4904
(I1
I11
tp4905
a(I11
I8
tp4906
as(S'req0_u4_1'
p4907
S'req0_u7_1'
p4908
tp4909
(lp4910
(I7
I7
tp4911
as(S'req0_u2_2'
p4912
S'req0_u3_2'
p4913
tp4914
(lp4915
(I0
I0
tp4916
as(S'req0_u8_1'
p4917
S'req0_u9_1'
p4918
tp4919
(lp4920
(I7
I7
tp4921
as(S'req0_u10_3'
p4922
S'req0_u11_3'
p4923
tp4924
(lp4925
(I8
I8
tp4926
as(S'req0_u11_1'
p4927
S'req0_a2_1'
p4928
tp4929
(lp4930
(I7
I7
tp4931
as(S'req0_u5_3'
p4932
S'req0_u11_3'
p4933
tp4934
(lp4935
(I8
I8
tp4936
assg368
(dp4937
(I4
I7
tp4938
F0.16666666666666666
s(I5
I6
tp4939
F0.0
s(I2
I8
tp4940
F0.0
s(I5
I1
tp4941
F0.0
s(I2
I5
tp4942
F0.0
s(I1
I11
tp4943
F0.25
s(I10
I3
tp4944
F0.0
s(I3
I10
tp4945
F0.25
s(I6
I3
tp4946
F0.16666666666666666
s(I1
I5
tp4947
F0.0
s(I11
I1
tp4948
F0.0
s(I3
I6
tp4949
F0.0
s(I4
I1
tp4950
F0.3333333333333333
s(I10
I9
tp4951
F0.0
s(I9
I7
tp4952
F0.0
s(I6
I4
tp4953
F0.0
s(I8
I2
tp4954
F0.0
s(I8
I11
tp4955
F0.0
s(I9
I3
tp4956
F0.0
s(I1
I4
tp4957
F0.0
s(I9
I10
tp4958
F0.0
s(I3
I9
tp4959
F0.0
s(I1
I0
tp4960
F0.16666666666666666
s(I6
I5
tp4961
F0.0
s(I7
I9
tp4962
F0.0
s(I0
I1
tp4963
F0.0
s(I4
I6
tp4964
F0.16666666666666666
s(I11
I8
tp4965
F0.25
s(I7
I4
tp4966
F0.0
s(I5
I2
tp4967
F0.0
ssg400
F42375.0
sg401
(dp4968
S'req0_u2_2'
p4969
(lp4970
I0
asS'req0_u2_3'
p4971
(lp4972
I1
asS'req0_u2_0'
p4973
(lp4974
I3
asS'req0_u2_1'
p4975
(lp4976
I7
asS'req0_u9_1'
p4977
(lp4978
I7
asS'req0_u9_0'
p4979
(lp4980
I10
asS'req0_a2_0'
p4981
(lp4982
I10
asS'req0_a2_1'
p4983
(lp4984
I7
asS'req0_u3_3'
p4985
(lp4986
I8
asS'req0_u3_2'
p4987
(lp4988
I0
asS'req0_u3_1'
p4989
(lp4990
I7
asS'req0_u3_0'
p4991
(lp4992
I10
asS'req0_u4_0'
p4993
(lp4994
I10
asS'req0_u4_1'
p4995
(lp4996
I7
asS'req0_u4_2'
p4997
(lp4998
I0
asS'req0_u4_3'
p4999
(lp5000
I8
asS'req0_u5_1'
p5001
(lp5002
I7
asS'req0_u5_0'
p5003
(lp5004
I10
asS'req0_u5_3'
p5005
(lp5006
I8
asS'req0_u5_2'
p5007
(lp5008
I0
asS'req0_a2_3'
p5009
(lp5010
I8
asS'req0_u9_3'
p5011
(lp5012
I8
asS'req0_a2_2'
p5013
(lp5014
I0
asg449
(lp5015
I4
asS'req0_u9_2'
p5016
(lp5017
I0
asg453
(lp5018
I4
asS'req0_u6_2'
p5019
(lp5020
I0
asS'req0_u6_3'
p5021
(lp5022
I8
asS'req0_u6_0'
p5023
(lp5024
I10
asS'req0_u6_1'
p5025
(lp5026
I7
asS'req0_u11_1'
p5027
(lp5028
I7
asS'req0_u11_0'
p5029
(lp5030
I10
asS'req0_u11_3'
p5031
(lp5032
I8
asS'req0_u11_2'
p5033
(lp5034
I0
asS'req0_u7_3'
p5035
(lp5036
I8
asS'req0_u7_2'
p5037
(lp5038
I0
asS'req0_u7_1'
p5039
(lp5040
I7
asS'req0_u7_0'
p5041
(lp5042
I10
asS'req0_u10_0'
p5043
(lp5044
I10
asS'req0_u10_1'
p5045
(lp5046
I7
asS'req0_u10_2'
p5047
(lp5048
I0
asS'req0_u10_3'
p5049
(lp5050
I8
asS'req0_u8_0'
p5051
(lp5052
I10
asS'req0_u8_1'
p5053
(lp5054
I7
asS'req0_u8_2'
p5055
(lp5056
I0
asS'req0_u8_3'
p5057
(lp5058
I8
assg495
(dp5059
(g497
g498
tp5060
F0.0529697492847616
s(g500
g501
tp5061
F0.11615626792049125
s(g503
g504
tp5062
F0.12644106603656907
s(g506
g507
tp5063
F0.07412559185758948
s(g509
g510
tp5064
I-1
ssg512
I41
sg513
F5000.0
sg514
I42
sg515
F2439.4030166666666
sg516
I6
sg517
F0.1446193966666667
sg518
I7
sg519
I41
ssS"[('req0_a1', 'req0_u2'), ('req0_u2', 'req0_u3'), ('req0_u3', 'req0_u1'), ('req0_u1', 'req0_u4_0'), ('req0_u4_0', 'req0_u5_0'), ('req0_u4_0', 'req0_u7_0'), ('req0_u7_0', 'req0_u6_0'), ('req0_u4_0', 'req0_u8_0'), ('req0_u8_0', 'req0_u9_0'), ('req0_u4_0', 'req0_u10_0'), ('req0_u5_0', 'req0_u11_0'), ('req0_u6_0', 'req0_u11_0'), ('req0_u9_0', 'req0_u11_0'), ('req0_u10_0', 'req0_u11_0'), ('req0_u11_0', 'req0_a2_0'), ('req0_u1', 'req0_u4_1'), ('req0_u4_1', 'req0_u5_1'), ('req0_u4_1', 'req0_u7_1'), ('req0_u7_1', 'req0_u6_1'), ('req0_u4_1', 'req0_u8_1'), ('req0_u8_1', 'req0_u9_1'), ('req0_u4_1', 'req0_u10_1'), ('req0_u5_1', 'req0_u11_1'), ('req0_u6_1', 'req0_u11_1'), ('req0_u9_1', 'req0_u11_1'), ('req0_u10_1', 'req0_u11_1'), ('req0_u11_1', 'req0_a2_1'), ('req0_u1', 'req0_u4_2'), ('req0_u4_2', 'req0_u5_2'), ('req0_u4_2', 'req0_u7_2'), ('req0_u7_2', 'req0_u6_2'), ('req0_u4_2', 'req0_u8_2'), ('req0_u8_2', 'req0_u9_2'), ('req0_u4_2', 'req0_u10_2'), ('req0_u5_2', 'req0_u11_2'), ('req0_u6_2', 'req0_u11_2'), ('req0_u9_2', 'req0_u11_2'), ('req0_u10_2', 'req0_u11_2'), ('req0_u11_2', 'req0_a2_2'), ('req0_u1', 'req0_u4_3'), ('req0_u4_3', 'req0_u5_3'), ('req0_u4_3', 'req0_u7_3'), ('req0_u7_3', 'req0_u6_3'), ('req0_u4_3', 'req0_u8_3'), ('req0_u8_3', 'req0_u9_3'), ('req0_u4_3', 'req0_u10_3'), ('req0_u5_3', 'req0_u11_3'), ('req0_u6_3', 'req0_u11_3'), ('req0_u9_3', 'req0_u11_3'), ('req0_u10_3', 'req0_u11_3'), ('req0_u11_3', 'req0_a2_3')]"
p5065
(dp5066
g3
(dp5067
S'CACHE'
p5068
I4
sS'LB'
p5069
I1
sS'FW'
p5070
I4
sS'WAPGW'
p5071
I4
sS'IDS'
p5072
I4
sS'PCTL'
p5073
I4
sS'IPS'
p5074
I4
sS'VOPT'
p5075
I4
sS'HHE'
p5076
I0
sS'AV'
p5077
I1
sS'WOPT'
p5078
I1
sS'PRX'
p5079
I0
sS'DPI'
p5080
I4
ssg18
F167759.0
sg19
I12
sg20
F0.08958340000000001
sg21
(dp5081
I0
F0.17885819000000003
sI1
F0.28125
sI2
F0.0
sI3
F0.0
sI4
F0.75
sI5
F0.0
sI6
F0.0
sI7
F0.45635819000000005
sI8
F0.13385819000000002
sI9
F0.28125
sI10
F0.13385819000000004
sI11
F0.0
ssg23
F0.46918775246165073
sg24
I01
sg25
F29235.336200000005
sg26
F1500.0
sg27
F0.0
sg28
F200.0
sg29
g30
sg31
F1365.6249
sg32
F2.3459387623082537
sg33
(dp5082
(I4
I7
tp5083
F0.0
s(I5
I6
tp5084
F1500.0
s(I2
I8
tp5085
F1500.0
s(I5
I1
tp5086
F1500.0
s(I2
I5
tp5087
F1500.0
s(I1
I11
tp5088
F1218.7489999999998
s(I10
I3
tp5089
F1500.0
s(I3
I10
tp5090
F1500.0
s(I6
I3
tp5091
F1500.0
s(I1
I5
tp5092
F1500.0
s(I11
I1
tp5093
F1500.0
s(I3
I6
tp5094
F1500.0
s(I4
I1
tp5095
F937.5
s(I10
I9
tp5096
F1500.0
s(I9
I7
tp5097
F1500.0
s(I6
I4
tp5098
F1500.0
s(I8
I2
tp5099
F1500.0
s(I8
I11
tp5100
F1500.0
s(I9
I3
tp5101
F1500.0
s(I1
I4
tp5102
F1500.0
s(I9
I10
tp5103
F1218.7489999999998
s(I3
I9
tp5104
F1500.0
s(I1
I0
tp5105
F1218.75
s(I6
I5
tp5106
F1500.0
s(I7
I9
tp5107
F1218.75
s(I0
I1
tp5108
F1500.0
s(I4
I6
tp5109
F1500.0
s(I11
I8
tp5110
F1218.7489999999998
s(I7
I4
tp5111
F937.5
s(I5
I2
tp5112
F1500.0
ssg65
(dp5113
I0
F4105.70905
sI1
F575.0
sI2
F5000.0
sI3
F800.0
sI4
F200.0
sI5
F800.0
sI6
F800.0
sI7
F2718.2090500000004
sI8
F4330.70905
sI9
F575.0
sI10
F4330.70905
sI11
F5000.0
ssg67
F40968.747
sg68
(dp5114
g5068
(lp5115
I0
aI7
aI8
aI10
asg5069
(lp5116
I7
asg5070
(lp5117
I0
aI7
aI8
aI10
asg5071
(lp5118
I0
aI7
aI8
aI10
asg5072
(lp5119
I0
aI7
aI8
aI10
asg5073
(lp5120
I0
aI7
aI8
aI10
asg5074
(lp5121
I0
aI7
aI8
aI10
asg5075
(lp5122
I0
aI7
aI8
aI10
asg5076
(lp5123
sg5077
(lp5124
I7
asg5078
(lp5125
I4
asg5079
(lp5126
sg5080
(lp5127
I0
aI1
aI7
aI9
assg83
(dp5128
(S'req0_u8_0'
p5129
S'req0_u9_0'
p5130
tp5131
(lp5132
(I10
I10
tp5133
as(S'req0_u11_0'
p5134
S'req0_a2_0'
p5135
tp5136
(lp5137
(I10
I10
tp5138
as(S'req0_u5_0'
p5139
S'req0_u11_0'
p5140
tp5141
(lp5142
(I10
I10
tp5143
as(S'req0_u1'
p5144
S'req0_u4_1'
p5145
tp5146
(lp5147
(I7
I7
tp5148
as(S'req0_u5_1'
p5149
S'req0_u11_1'
p5150
tp5151
(lp5152
(I7
I7
tp5153
as(S'req0_u10_1'
p5154
S'req0_u11_1'
p5155
tp5156
(lp5157
(I7
I7
tp5158
as(S'req0_u5_2'
p5159
S'req0_u11_2'
p5160
tp5161
(lp5162
(I0
I0
tp5163
as(S'req0_u6_2'
p5164
S'req0_u11_2'
p5165
tp5166
(lp5167
(I0
I0
tp5168
as(S'req0_u10_2'
p5169
S'req0_u11_2'
p5170
tp5171
(lp5172
(I0
I0
tp5173
as(S'req0_u4_2'
p5174
S'req0_u10_2'
p5175
tp5176
(lp5177
(I0
I0
tp5178
as(S'req0_u2'
p5179
S'req0_u3'
p5180
tp5181
(lp5182
(I4
I7
tp5183
as(S'req0_u11_3'
p5184
S'req0_a2_3'
p5185
tp5186
(lp5187
(I8
I8
tp5188
as(S'req0_u4_1'
p5189
S'req0_u8_1'
p5190
tp5191
(lp5192
(I7
I7
tp5193
as(S'req0_u10_3'
p5194
S'req0_u11_3'
p5195
tp5196
(lp5197
(I8
I8
tp5198
as(S'req0_u4_2'
p5199
S'req0_u5_2'
p5200
tp5201
(lp5202
(I0
I0
tp5203
as(S'req0_u4_0'
p5204
S'req0_u8_0'
p5205
tp5206
(lp5207
(I9
I10
tp5208
as(S'req0_u4_1'
p5209
S'req0_u5_1'
p5210
tp5211
(lp5212
(I7
I7
tp5213
as(g5144
S'req0_u4_2'
p5214
tp5215
(lp5216
(I1
I0
tp5217
a(I4
I1
tp5218
a(I7
I4
tp5219
as(S'req0_u4_1'
p5220
S'req0_u10_1'
p5221
tp5222
(lp5223
(I7
I7
tp5224
as(S'req0_u4_3'
p5225
S'req0_u7_3'
p5226
tp5227
(lp5228
(I1
I11
tp5229
a(I11
I8
tp5230
as(S'req0_u4_0'
p5231
S'req0_u5_0'
p5232
tp5233
(lp5234
(I9
I10
tp5235
as(S'req0_u6_3'
p5236
S'req0_u11_3'
p5237
tp5238
(lp5239
(I8
I8
tp5240
as(S'req0_u7_2'
p5241
S'req0_u6_2'
p5242
tp5243
(lp5244
(I0
I0
tp5245
as(S'req0_u4_0'
p5246
S'req0_u10_0'
p5247
tp5248
(lp5249
(I9
I10
tp5250
as(S'req0_u6_1'
p5251
S'req0_u11_1'
p5252
tp5253
(lp5254
(I7
I7
tp5255
as(S'req0_u4_3'
p5256
S'req0_u5_3'
p5257
tp5258
(lp5259
(I1
I11
tp5260
a(I11
I8
tp5261
as(S'req0_u7_3'
p5262
S'req0_u6_3'
p5263
tp5264
(lp5265
(I8
I8
tp5266
as(S'req0_u4_3'
p5267
S'req0_u8_3'
p5268
tp5269
(lp5270
(I1
I11
tp5271
a(I11
I8
tp5272
as(S'req0_u6_0'
p5273
S'req0_u11_0'
p5274
tp5275
(lp5276
(I10
I10
tp5277
as(g5180
g5144
tp5278
(lp5279
(I7
I7
tp5280
as(S'req0_u10_0'
p5281
S'req0_u11_0'
p5282
tp5283
(lp5284
(I10
I10
tp5285
as(S'req0_u7_1'
p5286
S'req0_u6_1'
p5287
tp5288
(lp5289
(I7
I7
tp5290
as(S'req0_u4_3'
p5291
S'req0_u10_3'
p5292
tp5293
(lp5294
(I1
I11
tp5295
a(I11
I8
tp5296
as(g5144
S'req0_u4_3'
p5297
tp5298
(lp5299
(I4
I1
tp5300
a(I7
I4
tp5301
as(S'req0_u9_2'
p5302
S'req0_u11_2'
p5303
tp5304
(lp5305
(I0
I0
tp5306
as(S'req0_u7_0'
p5307
S'req0_u6_0'
p5308
tp5309
(lp5310
(I10
I10
tp5311
as(S'req0_u9_3'
p5312
S'req0_u11_3'
p5313
tp5314
(lp5315
(I8
I8
tp5316
as(S'req0_u8_2'
p5317
S'req0_u9_2'
p5318
tp5319
(lp5320
(I0
I0
tp5321
as(S'req0_u4_2'
p5322
S'req0_u7_2'
p5323
tp5324
(lp5325
(I0
I0
tp5326
as(S'req0_u8_3'
p5327
S'req0_u9_3'
p5328
tp5329
(lp5330
(I8
I8
tp5331
as(S'req0_u4_2'
p5332
S'req0_u8_2'
p5333
tp5334
(lp5335
(I0
I0
tp5336
as(S'req0_u9_0'
p5337
S'req0_u11_0'
p5338
tp5339
(lp5340
(I10
I10
tp5341
as(S'req0_u11_2'
p5342
S'req0_a2_2'
p5343
tp5344
(lp5345
(I0
I0
tp5346
as(g5144
S'req0_u4_0'
p5347
tp5348
(lp5349
(I7
I9
tp5350
as(S'req0_u4_0'
p5351
S'req0_u7_0'
p5352
tp5353
(lp5354
(I9
I10
tp5355
as(S'req0_u9_1'
p5356
S'req0_u11_1'
p5357
tp5358
(lp5359
(I7
I7
tp5360
as(S'req0_a1'
p5361
g5179
tp5362
(lp5363
(I4
I4
tp5364
as(S'req0_u4_1'
p5365
S'req0_u7_1'
p5366
tp5367
(lp5368
(I7
I7
tp5369
as(S'req0_u8_1'
p5370
S'req0_u9_1'
p5371
tp5372
(lp5373
(I7
I7
tp5374
as(S'req0_u11_1'
p5375
S'req0_a2_1'
p5376
tp5377
(lp5378
(I7
I7
tp5379
as(S'req0_u5_3'
p5380
S'req0_u11_3'
p5381
tp5382
(lp5383
(I8
I8
tp5384
assg368
(dp5385
(I4
I7
tp5386
F1.0
s(I5
I6
tp5387
F0.0
s(I2
I8
tp5388
F0.0
s(I5
I1
tp5389
F0.0
s(I2
I5
tp5390
F0.0
s(I1
I11
tp5391
F0.18750066666666665
s(I10
I3
tp5392
F0.0
s(I3
I10
tp5393
F0.0
s(I6
I3
tp5394
F0.0
s(I1
I5
tp5395
F0.0
s(I11
I1
tp5396
F0.0
s(I3
I6
tp5397
F0.0
s(I4
I1
tp5398
F0.375
s(I10
I9
tp5399
F0.0
s(I9
I7
tp5400
F0.0
s(I6
I4
tp5401
F0.0
s(I8
I2
tp5402
F0.0
s(I8
I11
tp5403
F0.0
s(I9
I3
tp5404
F0.0
s(I1
I4
tp5405
F0.0
s(I9
I10
tp5406
F0.18750066666666665
s(I3
I9
tp5407
F0.0
s(I1
I0
tp5408
F0.1875
s(I6
I5
tp5409
F0.0
s(I7
I9
tp5410
F0.1875
s(I0
I1
tp5411
F0.0
s(I4
I6
tp5412
F0.0
s(I11
I8
tp5413
F0.18750066666666665
s(I7
I4
tp5414
F0.375
s(I5
I2
tp5415
F0.0
ssg400
F40968.747
sg401
(dp5416
S'req0_u9_1'
p5417
(lp5418
I7
asS'req0_u9_0'
p5419
(lp5420
I10
asS'req0_a2_0'
p5421
(lp5422
I10
asS'req0_a2_1'
p5423
(lp5424
I7
asS'req0_u4_0'
p5425
(lp5426
I9
asS'req0_u4_1'
p5427
(lp5428
I7
asS'req0_u4_2'
p5429
(lp5430
I0
asS'req0_u4_3'
p5431
(lp5432
I1
asS'req0_u5_1'
p5433
(lp5434
I7
asS'req0_u5_0'
p5435
(lp5436
I10
asS'req0_u5_3'
p5437
(lp5438
I8
asS'req0_u5_2'
p5439
(lp5440
I0
asS'req0_a2_3'
p5441
(lp5442
I8
asS'req0_u9_3'
p5443
(lp5444
I8
asS'req0_a2_2'
p5445
(lp5446
I0
asg449
(lp5447
I4
asS'req0_u9_2'
p5448
(lp5449
I0
asg1354
(lp5450
I7
asg925
(lp5451
I4
asg453
(lp5452
I7
asS'req0_u6_2'
p5453
(lp5454
I0
asS'req0_u6_3'
p5455
(lp5456
I8
asS'req0_u6_0'
p5457
(lp5458
I10
asS'req0_u6_1'
p5459
(lp5460
I7
asS'req0_u11_1'
p5461
(lp5462
I7
asS'req0_u11_0'
p5463
(lp5464
I10
asS'req0_u11_3'
p5465
(lp5466
I8
asS'req0_u11_2'
p5467
(lp5468
I0
asS'req0_u7_3'
p5469
(lp5470
I8
asS'req0_u7_2'
p5471
(lp5472
I0
asS'req0_u7_1'
p5473
(lp5474
I7
asS'req0_u7_0'
p5475
(lp5476
I10
asS'req0_u10_0'
p5477
(lp5478
I10
asS'req0_u10_1'
p5479
(lp5480
I7
asS'req0_u10_2'
p5481
(lp5482
I0
asS'req0_u10_3'
p5483
(lp5484
I8
asS'req0_u8_0'
p5485
(lp5486
I10
asS'req0_u8_1'
p5487
(lp5488
I7
asS'req0_u8_2'
p5489
(lp5490
I0
asS'req0_u8_3'
p5491
(lp5492
I8
assg495
(dp5493
(g497
g498
tp5494
F0.05296974925892393
s(g500
g501
tp5495
F0.22209576643833912
s(g503
g504
tp5496
F0.13135408452661002
s(g506
g507
tp5497
F0.18006509035319038
s(g509
g510
tp5498
I-1
ssg512
I35
sg513
F5000.0
sg514
I42
sg515
F2436.278016666667
sg516
I9
sg517
F0.18461939666666669
sg518
I7
sg519
I35
ss.