(dp0
S"[('req0_a1', 'req0_u1'), ('req0_u1', 'req0_u2'), ('req0_u2', 'req0_u3'), ('req0_u3', 'req0_a2')]"
p1
(dp2
S'num_instances'
p3
(dp4
S'CACHE'
p5
I0
sS'LB'
p6
I0
sS'FW'
p7
I1
sS'WAPGW'
p8
I0
sS'IDS'
p9
I0
sS'PCTL'
p10
I1
sS'IPS'
p11
I0
sS'VOPT'
p12
I0
sS'HHE'
p13
I0
sS'AV'
p14
I0
sS'WOPT'
p15
I0
sS'PRX'
p16
I0
sS'DPI'
p17
I1
ssS'time_ms'
p18
F3711.0
sS'num_network_nodes'
p19
I12
sS'mean_datarate_util'
p20
F0.0
sS'node_utilization'
p21
(dp22
I0
F0.0
sI1
F0.0
sI2
F0.334
sI3
F0.0
sI4
F0.0
sI5
F0.0
sI6
F0.0
sI7
F0.0
sI8
F0.0
sI9
F0.0
sI10
F0.0
sI11
F0.0
ssS'mean_latency'
p23
F0.0
sS'solved'
p24
I01
sS'sum_remaining_node_cap'
p25
F33130.0
sS'max_remaining_datarate'
p26
F1500.0
sS'min_remaining_datarate'
p27
F1500.0
sS'min_remaining_node_cap'
p28
F800.0
sS'chosencombs'
p29
(lp30
I0
asS'mean_remaining_datarate'
p31
F1500.0
sS'pareto_lat'
p32
F0.0
sS'remaining_datarate'
p33
(dp34
(I4
I7
tp35
F1500.0
s(I5
I6
tp36
F1500.0
s(I2
I8
tp37
F1500.0
s(I5
I1
tp38
F1500.0
s(I2
I5
tp39
F1500.0
s(I1
I11
tp40
F1500.0
s(I10
I3
tp41
F1500.0
s(I3
I10
tp42
F1500.0
s(I6
I3
tp43
F1500.0
s(I1
I5
tp44
F1500.0
s(I11
I1
tp45
F1500.0
s(I3
I6
tp46
F1500.0
s(I4
I1
tp47
F1500.0
s(I10
I9
tp48
F1500.0
s(I9
I7
tp49
F1500.0
s(I6
I4
tp50
F1500.0
s(I8
I2
tp51
F1500.0
s(I8
I11
tp52
F1500.0
s(I9
I3
tp53
F1500.0
s(I1
I4
tp54
F1500.0
s(I9
I10
tp55
F1500.0
s(I3
I9
tp56
F1500.0
s(I1
I0
tp57
F1500.0
s(I6
I5
tp58
F1500.0
s(I7
I9
tp59
F1500.0
s(I0
I1
tp60
F1500.0
s(I4
I6
tp61
F1500.0
s(I11
I8
tp62
F1500.0
s(I7
I4
tp63
F1500.0
s(I5
I2
tp64
F1500.0
ssS'remaining_node_cap'
p65
(dp66
I0
F5000.0
sI1
F800.0
sI2
F3330.0
sI3
F800.0
sI4
F800.0
sI5
F800.0
sI6
F800.0
sI7
F5000.0
sI8
F5000.0
sI9
F800.0
sI10
F5000.0
sI11
F5000.0
ssS'pareto_dr'
p67
F45000.0
sS'vnf_to_node'
p68
(dp69
g5
(lp70
sg6
(lp71
sg7
(lp72
I2
asg8
(lp73
sg9
(lp74
sg10
(lp75
I2
asg11
(lp76
sg12
(lp77
sg13
(lp78
sg14
(lp79
sg15
(lp80
sg16
(lp81
sg17
(lp82
I2
assS'edges'
p83
(dp84
(S'req0_u2'
p85
S'req0_u3'
p86
tp87
(lp88
(I2
I2
tp89
as(S'req0_a1'
p90
S'req0_u1'
p91
tp92
(lp93
(I2
I2
tp94
as(g86
S'req0_a2'
p95
tp96
(lp97
(I2
I2
tp98
as(g91
g85
tp99
(lp100
(I2
I2
tp101
assS'datarate_util'
p102
(dp103
(I4
I7
tp104
F0.0
s(I5
I6
tp105
F0.0
s(I2
I8
tp106
F0.0
s(I5
I1
tp107
F0.0
s(I2
I5
tp108
F0.0
s(I1
I11
tp109
F0.0
s(I10
I3
tp110
F0.0
s(I3
I10
tp111
F0.0
s(I6
I3
tp112
F0.0
s(I1
I5
tp113
F0.0
s(I11
I1
tp114
F0.0
s(I3
I6
tp115
F0.0
s(I4
I1
tp116
F0.0
s(I10
I9
tp117
F0.0
s(I9
I7
tp118
F0.0
s(I6
I4
tp119
F0.0
s(I8
I2
tp120
F0.0
s(I8
I11
tp121
F0.0
s(I9
I3
tp122
F0.0
s(I1
I4
tp123
F0.0
s(I9
I10
tp124
F0.0
s(I3
I9
tp125
F0.0
s(I1
I0
tp126
F0.0
s(I6
I5
tp127
F0.0
s(I7
I9
tp128
F0.0
s(I0
I1
tp129
F0.0
s(I4
I6
tp130
F0.0
s(I11
I8
tp131
F0.0
s(I7
I4
tp132
F0.0
s(I5
I2
tp133
F0.0
ssS'sum_remaining_datarate'
p134
F45000.0
sS'ureq_to_node'
p135
(dp136
S'req0_a2'
p137
(lp138
I2
asS'req0_a1'
p139
(lp140
I2
asS'req0_u3'
p141
(lp142
I2
asS'req0_u2'
p143
(lp144
I2
asS'req0_u1'
p145
(lp146
I2
assS'max_latency'
p147
(dp148
(S'req0_a1'
p149
S'req0_a2'
p150
tp151
F0.0
ssS'used_instances'
p152
I3
sS'max_remaining_node_cap'
p153
F5000.0
sS'num_network_edges'
p154
I42
sS'mean_remaining_node_cap'
p155
F2760.8333333333335
sS'combination_number'
p156
I0
sS'mean_utilization'
p157
F0.027833333333333335
sS'used_nodes'
p158
I1
sS'num_usage_req'
p159
I3
ss.